
main:     file format elf32-littlearm


Disassembly of section .text:

00100000 <__mmu_l0>:
  100000:	00017c0e 	andeq	r7, r1, lr, lsl #24
  100004:	00117c0e 	andseq	r7, r1, lr, lsl #24
  100008:	00217c0e 	eoreq	r7, r1, lr, lsl #24
  10000c:	00317c0e 	eorseq	r7, r1, lr, lsl #24
  100010:	00417c0e 	subeq	r7, r1, lr, lsl #24
  100014:	00517c0e 	subseq	r7, r1, lr, lsl #24
  100018:	00617c0e 	rsbeq	r7, r1, lr, lsl #24
  10001c:	00717c0e 	rsbseq	r7, r1, lr, lsl #24
  100020:	00817c0e 	addeq	r7, r1, lr, lsl #24
  100024:	00917c0e 	addseq	r7, r1, lr, lsl #24
  100028:	00a17c0e 	adceq	r7, r1, lr, lsl #24
  10002c:	00b17c0e 	adcseq	r7, r1, lr, lsl #24
  100030:	00c17c0e 	sbceq	r7, r1, lr, lsl #24
  100034:	00d17c0e 	sbcseq	r7, r1, lr, lsl #24
  100038:	00e17c0e 	rsceq	r7, r1, lr, lsl #24
  10003c:	00f17c0e 	rscseq	r7, r1, lr, lsl #24
  100040:	01017c0e 	tsteq	r1, lr, lsl #24
  100044:	01117c0e 	tsteq	r1, lr, lsl #24
  100048:	01217c0e 			; <UNDEFINED> instruction: 0x01217c0e
  10004c:	01317c0e 	teqeq	r1, lr, lsl #24
  100050:	01417c0e 	cmpeq	r1, lr, lsl #24
  100054:	01517c0e 	cmpeq	r1, lr, lsl #24
  100058:	01617c0e 	cmneq	r1, lr, lsl #24
  10005c:	01717c0e 	cmneq	r1, lr, lsl #24
  100060:	01817c0e 	orreq	r7, r1, lr, lsl #24
  100064:	01917c0e 	orrseq	r7, r1, lr, lsl #24
  100068:	01a17c0e 			; <UNDEFINED> instruction: 0x01a17c0e
  10006c:	01b17c0e 			; <UNDEFINED> instruction: 0x01b17c0e
  100070:	01c17c0e 	biceq	r7, r1, lr, lsl #24
  100074:	01d17c0e 	bicseq	r7, r1, lr, lsl #24
  100078:	01e17c0e 	mvneq	r7, lr, lsl #24
  10007c:	01f17c0e 	mvnseq	r7, lr, lsl #24
  100080:	02017c0e 	andeq	r7, r1, #3584	; 0xe00
  100084:	02117c0e 	andseq	r7, r1, #3584	; 0xe00
  100088:	02217c0e 	eoreq	r7, r1, #3584	; 0xe00
  10008c:	02317c0e 	eorseq	r7, r1, #3584	; 0xe00
  100090:	02417c0e 	subeq	r7, r1, #3584	; 0xe00
  100094:	02517c0e 	subseq	r7, r1, #3584	; 0xe00
  100098:	02617c0e 	rsbeq	r7, r1, #3584	; 0xe00
  10009c:	02717c0e 	rsbseq	r7, r1, #3584	; 0xe00
  1000a0:	02817c0e 	addeq	r7, r1, #3584	; 0xe00
  1000a4:	02917c0e 	addseq	r7, r1, #3584	; 0xe00
  1000a8:	02a17c0e 	adceq	r7, r1, #3584	; 0xe00
  1000ac:	02b17c0e 	adcseq	r7, r1, #3584	; 0xe00
  1000b0:	02c17c0e 	sbceq	r7, r1, #3584	; 0xe00
  1000b4:	02d17c0e 	sbcseq	r7, r1, #3584	; 0xe00
  1000b8:	02e17c0e 	rsceq	r7, r1, #3584	; 0xe00
  1000bc:	02f17c0e 	rscseq	r7, r1, #3584	; 0xe00
  1000c0:	03017c0e 	movweq	r7, #7182	; 0x1c0e
  1000c4:	03117c0e 	tsteq	r1, #3584	; 0xe00
  1000c8:	03217c0e 			; <UNDEFINED> instruction: 0x03217c0e
  1000cc:	03317c0e 	teqeq	r1, #3584	; 0xe00
  1000d0:	03417c0e 	movteq	r7, #7182	; 0x1c0e
  1000d4:	03517c0e 	cmpeq	r1, #3584	; 0xe00
  1000d8:	03617c0e 	cmneq	r1, #3584	; 0xe00
  1000dc:	03717c0e 	cmneq	r1, #3584	; 0xe00
  1000e0:	03817c0e 	orreq	r7, r1, #3584	; 0xe00
  1000e4:	03917c0e 	orrseq	r7, r1, #3584	; 0xe00
  1000e8:	03a17c0e 			; <UNDEFINED> instruction: 0x03a17c0e
  1000ec:	03b17c0e 			; <UNDEFINED> instruction: 0x03b17c0e
  1000f0:	03c17c0e 	biceq	r7, r1, #3584	; 0xe00
  1000f4:	03d17c0e 	bicseq	r7, r1, #3584	; 0xe00
  1000f8:	03e17c0e 	mvneq	r7, #3584	; 0xe00
  1000fc:	03f17c0e 	mvnseq	r7, #3584	; 0xe00
  100100:	04017c0e 	streq	r7, [r1], #-3086	; 0xfffff3f2
  100104:	04117c0e 	ldreq	r7, [r1], #-3086	; 0xfffff3f2
  100108:	04217c0e 	strteq	r7, [r1], #-3086	; 0xfffff3f2
  10010c:	04317c0e 	ldrteq	r7, [r1], #-3086	; 0xfffff3f2
  100110:	04417c0e 	strbeq	r7, [r1], #-3086	; 0xfffff3f2
  100114:	04517c0e 	ldrbeq	r7, [r1], #-3086	; 0xfffff3f2
  100118:	04617c0e 	strbteq	r7, [r1], #-3086	; 0xfffff3f2
  10011c:	04717c0e 	ldrbteq	r7, [r1], #-3086	; 0xfffff3f2
  100120:	04817c0e 	streq	r7, [r1], #3086	; 0xc0e
  100124:	04917c0e 	ldreq	r7, [r1], #3086	; 0xc0e
  100128:	04a17c0e 	strteq	r7, [r1], #3086	; 0xc0e
  10012c:	04b17c0e 	ldrteq	r7, [r1], #3086	; 0xc0e
  100130:	04c17c0e 	strbeq	r7, [r1], #3086	; 0xc0e
  100134:	04d17c0e 	ldrbeq	r7, [r1], #3086	; 0xc0e
  100138:	04e17c0e 	strbteq	r7, [r1], #3086	; 0xc0e
  10013c:	04f17c0e 	ldrbteq	r7, [r1], #3086	; 0xc0e
  100140:	05017c0e 	streq	r7, [r1, #-3086]	; 0xfffff3f2
  100144:	05117c0e 	ldreq	r7, [r1, #-3086]	; 0xfffff3f2
  100148:	05217c0e 	streq	r7, [r1, #-3086]!	; 0xfffff3f2
  10014c:	05317c0e 	ldreq	r7, [r1, #-3086]!	; 0xfffff3f2
  100150:	05417c0e 	strbeq	r7, [r1, #-3086]	; 0xfffff3f2
  100154:	05517c0e 	ldrbeq	r7, [r1, #-3086]	; 0xfffff3f2
  100158:	05617c0e 	strbeq	r7, [r1, #-3086]!	; 0xfffff3f2
  10015c:	05717c0e 	ldrbeq	r7, [r1, #-3086]!	; 0xfffff3f2
  100160:	05817c0e 	streq	r7, [r1, #3086]	; 0xc0e
  100164:	05917c0e 	ldreq	r7, [r1, #3086]	; 0xc0e
  100168:	05a17c0e 	streq	r7, [r1, #3086]!	; 0xc0e
  10016c:	05b17c0e 	ldreq	r7, [r1, #3086]!	; 0xc0e
  100170:	05c17c0e 	strbeq	r7, [r1, #3086]	; 0xc0e
  100174:	05d17c0e 	ldrbeq	r7, [r1, #3086]	; 0xc0e
  100178:	05e17c0e 	strbeq	r7, [r1, #3086]!	; 0xc0e
  10017c:	05f17c0e 	ldrbeq	r7, [r1, #3086]!	; 0xc0e
  100180:	06017c0e 	streq	r7, [r1], -lr, lsl #24
  100184:	06117c0e 	ldreq	r7, [r1], -lr, lsl #24
  100188:	06217c0e 	strteq	r7, [r1], -lr, lsl #24
  10018c:	06317c0e 	ldrteq	r7, [r1], -lr, lsl #24
  100190:	06417c0e 	strbeq	r7, [r1], -lr, lsl #24
  100194:	06517c0e 	ldrbeq	r7, [r1], -lr, lsl #24
  100198:	06617c0e 	strbteq	r7, [r1], -lr, lsl #24
  10019c:	06717c0e 	ldrbteq	r7, [r1], -lr, lsl #24
  1001a0:	06817c0e 	streq	r7, [r1], lr, lsl #24
  1001a4:	06917c0e 	ldreq	r7, [r1], lr, lsl #24
  1001a8:	06a17c0e 	strteq	r7, [r1], lr, lsl #24
  1001ac:	06b17c0e 	ldrteq	r7, [r1], lr, lsl #24
  1001b0:	06c17c0e 	strbeq	r7, [r1], lr, lsl #24
  1001b4:	06d17c0e 	ldrbeq	r7, [r1], lr, lsl #24
  1001b8:	06e17c0e 	strbteq	r7, [r1], lr, lsl #24
  1001bc:	06f17c0e 	ldrbteq	r7, [r1], lr, lsl #24
  1001c0:	07017c0e 	streq	r7, [r1, -lr, lsl #24]
  1001c4:	07117c0e 	ldreq	r7, [r1, -lr, lsl #24]
  1001c8:	07217c0e 	streq	r7, [r1, -lr, lsl #24]!
  1001cc:	07317c0e 	ldreq	r7, [r1, -lr, lsl #24]!
  1001d0:	07417c0e 	strbeq	r7, [r1, -lr, lsl #24]
  1001d4:	07517c0e 	ldrbeq	r7, [r1, -lr, lsl #24]
  1001d8:	07617c0e 	strbeq	r7, [r1, -lr, lsl #24]!
  1001dc:	07717c0e 	ldrbeq	r7, [r1, -lr, lsl #24]!
  1001e0:	07817c0e 	streq	r7, [r1, lr, lsl #24]
  1001e4:	07917c0e 	ldreq	r7, [r1, lr, lsl #24]
  1001e8:	07a17c0e 	streq	r7, [r1, lr, lsl #24]!
  1001ec:	07b17c0e 	ldreq	r7, [r1, lr, lsl #24]!
  1001f0:	07c17c0e 	strbeq	r7, [r1, lr, lsl #24]
  1001f4:	07d17c0e 	ldrbeq	r7, [r1, lr, lsl #24]
  1001f8:	07e17c0e 	strbeq	r7, [r1, lr, lsl #24]!
  1001fc:	07f17c0e 	ldrbeq	r7, [r1, lr, lsl #24]!
  100200:	08017c0e 	stmdaeq	r1, {r1, r2, r3, sl, fp, ip, sp, lr}
  100204:	08117c0e 	ldmdaeq	r1, {r1, r2, r3, sl, fp, ip, sp, lr}
  100208:	08217c0e 	stmdaeq	r1!, {r1, r2, r3, sl, fp, ip, sp, lr}
  10020c:	08317c0e 	ldmdaeq	r1!, {r1, r2, r3, sl, fp, ip, sp, lr}
  100210:	08417c0e 	stmdaeq	r1, {r1, r2, r3, sl, fp, ip, sp, lr}^
  100214:	08517c0e 	ldmdaeq	r1, {r1, r2, r3, sl, fp, ip, sp, lr}^
  100218:	08617c0e 	stmdaeq	r1!, {r1, r2, r3, sl, fp, ip, sp, lr}^
  10021c:	08717c0e 	ldmdaeq	r1!, {r1, r2, r3, sl, fp, ip, sp, lr}^
  100220:	08817c0e 	stmeq	r1, {r1, r2, r3, sl, fp, ip, sp, lr}
  100224:	08917c0e 	ldmeq	r1, {r1, r2, r3, sl, fp, ip, sp, lr}
  100228:	08a17c0e 	stmiaeq	r1!, {r1, r2, r3, sl, fp, ip, sp, lr}
  10022c:	08b17c0e 	ldmeq	r1!, {r1, r2, r3, sl, fp, ip, sp, lr}
  100230:	08c17c0e 	stmiaeq	r1, {r1, r2, r3, sl, fp, ip, sp, lr}^
  100234:	08d17c0e 	ldmeq	r1, {r1, r2, r3, sl, fp, ip, sp, lr}^
  100238:	08e17c0e 	stmiaeq	r1!, {r1, r2, r3, sl, fp, ip, sp, lr}^
  10023c:	08f17c0e 	ldmeq	r1!, {r1, r2, r3, sl, fp, ip, sp, lr}^
  100240:	09017c0e 	stmdbeq	r1, {r1, r2, r3, sl, fp, ip, sp, lr}
  100244:	09117c0e 	ldmdbeq	r1, {r1, r2, r3, sl, fp, ip, sp, lr}
  100248:	09217c0e 	stmdbeq	r1!, {r1, r2, r3, sl, fp, ip, sp, lr}
  10024c:	09317c0e 	ldmdbeq	r1!, {r1, r2, r3, sl, fp, ip, sp, lr}
  100250:	09417c0e 	stmdbeq	r1, {r1, r2, r3, sl, fp, ip, sp, lr}^
  100254:	09517c0e 	ldmdbeq	r1, {r1, r2, r3, sl, fp, ip, sp, lr}^
  100258:	09617c0e 	stmdbeq	r1!, {r1, r2, r3, sl, fp, ip, sp, lr}^
  10025c:	09717c0e 	ldmdbeq	r1!, {r1, r2, r3, sl, fp, ip, sp, lr}^
  100260:	09817c0e 	stmibeq	r1, {r1, r2, r3, sl, fp, ip, sp, lr}
  100264:	09917c0e 	ldmibeq	r1, {r1, r2, r3, sl, fp, ip, sp, lr}
  100268:	09a17c0e 	stmibeq	r1!, {r1, r2, r3, sl, fp, ip, sp, lr}
  10026c:	09b17c0e 	ldmibeq	r1!, {r1, r2, r3, sl, fp, ip, sp, lr}
  100270:	09c17c0e 	stmibeq	r1, {r1, r2, r3, sl, fp, ip, sp, lr}^
  100274:	09d17c0e 	ldmibeq	r1, {r1, r2, r3, sl, fp, ip, sp, lr}^
  100278:	09e17c0e 	stmibeq	r1!, {r1, r2, r3, sl, fp, ip, sp, lr}^
  10027c:	09f17c0e 	ldmibeq	r1!, {r1, r2, r3, sl, fp, ip, sp, lr}^
  100280:	0a017c0e 	beq	15f2c0 <__cpu0_stack_end+0x2ef90>
  100284:	0a117c0e 	beq	55f2c4 <__cpu0_stack_end+0x42ef94>
  100288:	0a217c0e 	beq	95f2c8 <__cpu0_stack_end+0x82ef98>
  10028c:	0a317c0e 	beq	d5f2cc <__cpu0_stack_end+0xc2ef9c>
  100290:	0a417c0e 	beq	115f2d0 <__cpu0_stack_end+0x102efa0>
  100294:	0a517c0e 	beq	155f2d4 <__cpu0_stack_end+0x142efa4>
  100298:	0a617c0e 	beq	195f2d8 <__cpu0_stack_end+0x182efa8>
  10029c:	0a717c0e 	beq	1d5f2dc <__cpu0_stack_end+0x1c2efac>
  1002a0:	0a817c0e 	beq	fe15f2e0 <__heap_end+0xbe25f2e0>
  1002a4:	0a917c0e 	beq	fe55f2e4 <__heap_end+0xbe65f2e4>
  1002a8:	0aa17c0e 	beq	fe95f2e8 <__heap_end+0xbea5f2e8>
  1002ac:	0ab17c0e 	beq	fed5f2ec <__heap_end+0xbee5f2ec>
  1002b0:	0ac17c0e 	beq	ff15f2f0 <__heap_end+0xbf25f2f0>
  1002b4:	0ad17c0e 	beq	ff55f2f4 <__heap_end+0xbf65f2f4>
  1002b8:	0ae17c0e 	beq	ff95f2f8 <__heap_end+0xbfa5f2f8>
  1002bc:	0af17c0e 	beq	ffd5f2fc <__heap_end+0xbfe5f2fc>
  1002c0:	0b017c0e 	bleq	15f300 <__cpu0_stack_end+0x2efd0>
  1002c4:	0b117c0e 	bleq	55f304 <__cpu0_stack_end+0x42efd4>
  1002c8:	0b217c0e 	bleq	95f308 <__cpu0_stack_end+0x82efd8>
  1002cc:	0b317c0e 	bleq	d5f30c <__cpu0_stack_end+0xc2efdc>
  1002d0:	0b417c0e 	bleq	115f310 <__cpu0_stack_end+0x102efe0>
  1002d4:	0b517c0e 	bleq	155f314 <__cpu0_stack_end+0x142efe4>
  1002d8:	0b617c0e 	bleq	195f318 <__cpu0_stack_end+0x182efe8>
  1002dc:	0b717c0e 	bleq	1d5f31c <__cpu0_stack_end+0x1c2efec>
  1002e0:	0b817c0e 	bleq	fe15f320 <__heap_end+0xbe25f320>
  1002e4:	0b917c0e 	bleq	fe55f324 <__heap_end+0xbe65f324>
  1002e8:	0ba17c0e 	bleq	fe95f328 <__heap_end+0xbea5f328>
  1002ec:	0bb17c0e 	bleq	fed5f32c <__heap_end+0xbee5f32c>
  1002f0:	0bc17c0e 	bleq	ff15f330 <__heap_end+0xbf25f330>
  1002f4:	0bd17c0e 	bleq	ff55f334 <__heap_end+0xbf65f334>
  1002f8:	0be17c0e 	bleq	ff95f338 <__heap_end+0xbfa5f338>
  1002fc:	0bf17c0e 	bleq	ffd5f33c <__heap_end+0xbfe5f33c>
  100300:	0c017c0e 	stceq	12, cr7, [r1], {14}
  100304:	0c117c0e 	ldceq	12, cr7, [r1], {14}
  100308:	0c217c0e 	stceq	12, cr7, [r1], #-56	; 0xffffffc8
  10030c:	0c317c0e 	ldceq	12, cr7, [r1], #-56	; 0xffffffc8
  100310:	0c417c0e 	mcrreq	12, 0, r7, r1, cr14
  100314:	0c517c0e 	mrrceq	12, 0, r7, r1, cr14
  100318:	0c617c0e 	stcleq	12, cr7, [r1], #-56	; 0xffffffc8
  10031c:	0c717c0e 	ldcleq	12, cr7, [r1], #-56	; 0xffffffc8
  100320:	0c817c0e 	stceq	12, cr7, [r1], {14}
  100324:	0c917c0e 	ldceq	12, cr7, [r1], {14}
  100328:	0ca17c0e 	stceq	12, cr7, [r1], #56	; 0x38
  10032c:	0cb17c0e 	ldceq	12, cr7, [r1], #56	; 0x38
  100330:	0cc17c0e 	stcleq	12, cr7, [r1], {14}
  100334:	0cd17c0e 	ldcleq	12, cr7, [r1], {14}
  100338:	0ce17c0e 	stcleq	12, cr7, [r1], #56	; 0x38
  10033c:	0cf17c0e 	ldcleq	12, cr7, [r1], #56	; 0x38
  100340:	0d017c0e 	stceq	12, cr7, [r1, #-56]	; 0xffffffc8
  100344:	0d117c0e 	ldceq	12, cr7, [r1, #-56]	; 0xffffffc8
  100348:	0d217c0e 	stceq	12, cr7, [r1, #-56]!	; 0xffffffc8
  10034c:	0d317c0e 	ldceq	12, cr7, [r1, #-56]!	; 0xffffffc8
  100350:	0d417c0e 	stcleq	12, cr7, [r1, #-56]	; 0xffffffc8
  100354:	0d517c0e 	ldcleq	12, cr7, [r1, #-56]	; 0xffffffc8
  100358:	0d617c0e 	stcleq	12, cr7, [r1, #-56]!	; 0xffffffc8
  10035c:	0d717c0e 	ldcleq	12, cr7, [r1, #-56]!	; 0xffffffc8
  100360:	0d817c0e 	stceq	12, cr7, [r1, #56]	; 0x38
  100364:	0d917c0e 	ldceq	12, cr7, [r1, #56]	; 0x38
  100368:	0da17c0e 	stceq	12, cr7, [r1, #56]!	; 0x38
  10036c:	0db17c0e 	ldceq	12, cr7, [r1, #56]!	; 0x38
  100370:	0dc17c0e 	stcleq	12, cr7, [r1, #56]	; 0x38
  100374:	0dd17c0e 	ldcleq	12, cr7, [r1, #56]	; 0x38
  100378:	0de17c0e 	stcleq	12, cr7, [r1, #56]!	; 0x38
  10037c:	0df17c0e 	ldcleq	12, cr7, [r1, #56]!	; 0x38
  100380:	0e017c0e 	cdpeq	12, 0, cr7, cr1, cr14, {0}
  100384:	0e117c0e 	cdpeq	12, 1, cr7, cr1, cr14, {0}
  100388:	0e217c0e 	cdpeq	12, 2, cr7, cr1, cr14, {0}
  10038c:	0e317c0e 	cdpeq	12, 3, cr7, cr1, cr14, {0}
  100390:	0e417c0e 	cdpeq	12, 4, cr7, cr1, cr14, {0}
  100394:	0e517c0e 	cdpeq	12, 5, cr7, cr1, cr14, {0}
  100398:	0e617c0e 	cdpeq	12, 6, cr7, cr1, cr14, {0}
  10039c:	0e717c0e 	cdpeq	12, 7, cr7, cr1, cr14, {0}
  1003a0:	0e817c0e 	cdpeq	12, 8, cr7, cr1, cr14, {0}
  1003a4:	0e917c0e 	cdpeq	12, 9, cr7, cr1, cr14, {0}
  1003a8:	0ea17c0e 	cdpeq	12, 10, cr7, cr1, cr14, {0}
  1003ac:	0eb17c0e 	cdpeq	12, 11, cr7, cr1, cr14, {0}
  1003b0:	0ec17c0e 	cdpeq	12, 12, cr7, cr1, cr14, {0}
  1003b4:	0ed17c0e 	cdpeq	12, 13, cr7, cr1, cr14, {0}
  1003b8:	0ee17c0e 	cdpeq	12, 14, cr7, cr1, cr14, {0}
  1003bc:	0ef17c0e 	cdpeq	12, 15, cr7, cr1, cr14, {0}
  1003c0:	0f017c0e 	svceq	0x00017c0e
  1003c4:	0f117c0e 	svceq	0x00117c0e
  1003c8:	0f217c0e 	svceq	0x00217c0e
  1003cc:	0f317c0e 	svceq	0x00317c0e
  1003d0:	0f417c0e 	svceq	0x00417c0e
  1003d4:	0f517c0e 	svceq	0x00517c0e
  1003d8:	0f617c0e 	svceq	0x00617c0e
  1003dc:	0f717c0e 	svceq	0x00717c0e
  1003e0:	0f817c0e 	svceq	0x00817c0e
  1003e4:	0f917c0e 	svceq	0x00917c0e
  1003e8:	0fa17c0e 	svceq	0x00a17c0e
  1003ec:	0fb17c0e 	svceq	0x00b17c0e
  1003f0:	0fc17c0e 	svceq	0x00c17c0e
  1003f4:	0fd17c0e 	svceq	0x00d17c0e
  1003f8:	0fe17c0e 	svceq	0x00e17c0e
  1003fc:	0ff17c0e 	svceq	0x00f17c0e
  100400:	10017c0e 	andne	r7, r1, lr, lsl #24
  100404:	10117c0e 	andsne	r7, r1, lr, lsl #24
  100408:	10217c0e 	eorne	r7, r1, lr, lsl #24
  10040c:	10317c0e 	eorsne	r7, r1, lr, lsl #24
  100410:	10417c0e 	subne	r7, r1, lr, lsl #24
  100414:	10517c0e 	subsne	r7, r1, lr, lsl #24
  100418:	10617c0e 	rsbne	r7, r1, lr, lsl #24
  10041c:	10717c0e 	rsbsne	r7, r1, lr, lsl #24
  100420:	10817c0e 	addne	r7, r1, lr, lsl #24
  100424:	10917c0e 	addsne	r7, r1, lr, lsl #24
  100428:	10a17c0e 	adcne	r7, r1, lr, lsl #24
  10042c:	10b17c0e 	adcsne	r7, r1, lr, lsl #24
  100430:	10c17c0e 	sbcne	r7, r1, lr, lsl #24
  100434:	10d17c0e 	sbcsne	r7, r1, lr, lsl #24
  100438:	10e17c0e 	rscne	r7, r1, lr, lsl #24
  10043c:	10f17c0e 	rscsne	r7, r1, lr, lsl #24
  100440:	11017c0e 	tstne	r1, lr, lsl #24
  100444:	11117c0e 	tstne	r1, lr, lsl #24
  100448:	11217c0e 			; <UNDEFINED> instruction: 0x11217c0e
  10044c:	11317c0e 	teqne	r1, lr, lsl #24
  100450:	11417c0e 	cmpne	r1, lr, lsl #24
  100454:	11517c0e 	cmpne	r1, lr, lsl #24
  100458:	11617c0e 	cmnne	r1, lr, lsl #24
  10045c:	11717c0e 	cmnne	r1, lr, lsl #24
  100460:	11817c0e 	orrne	r7, r1, lr, lsl #24
  100464:	11917c0e 	orrsne	r7, r1, lr, lsl #24
  100468:	11a17c0e 			; <UNDEFINED> instruction: 0x11a17c0e
  10046c:	11b17c0e 			; <UNDEFINED> instruction: 0x11b17c0e
  100470:	11c17c0e 	bicne	r7, r1, lr, lsl #24
  100474:	11d17c0e 	bicsne	r7, r1, lr, lsl #24
  100478:	11e17c0e 	mvnne	r7, lr, lsl #24
  10047c:	11f17c0e 	mvnsne	r7, lr, lsl #24
  100480:	12017c0e 	andne	r7, r1, #3584	; 0xe00
  100484:	12117c0e 	andsne	r7, r1, #3584	; 0xe00
  100488:	12217c0e 	eorne	r7, r1, #3584	; 0xe00
  10048c:	12317c0e 	eorsne	r7, r1, #3584	; 0xe00
  100490:	12417c0e 	subne	r7, r1, #3584	; 0xe00
  100494:	12517c0e 	subsne	r7, r1, #3584	; 0xe00
  100498:	12617c0e 	rsbne	r7, r1, #3584	; 0xe00
  10049c:	12717c0e 	rsbsne	r7, r1, #3584	; 0xe00
  1004a0:	12817c0e 	addne	r7, r1, #3584	; 0xe00
  1004a4:	12917c0e 	addsne	r7, r1, #3584	; 0xe00
  1004a8:	12a17c0e 	adcne	r7, r1, #3584	; 0xe00
  1004ac:	12b17c0e 	adcsne	r7, r1, #3584	; 0xe00
  1004b0:	12c17c0e 	sbcne	r7, r1, #3584	; 0xe00
  1004b4:	12d17c0e 	sbcsne	r7, r1, #3584	; 0xe00
  1004b8:	12e17c0e 	rscne	r7, r1, #3584	; 0xe00
  1004bc:	12f17c0e 	rscsne	r7, r1, #3584	; 0xe00
  1004c0:	13017c0e 	movwne	r7, #7182	; 0x1c0e
  1004c4:	13117c0e 	tstne	r1, #3584	; 0xe00
  1004c8:	13217c0e 			; <UNDEFINED> instruction: 0x13217c0e
  1004cc:	13317c0e 	teqne	r1, #3584	; 0xe00
  1004d0:	13417c0e 	movtne	r7, #7182	; 0x1c0e
  1004d4:	13517c0e 	cmpne	r1, #3584	; 0xe00
  1004d8:	13617c0e 	cmnne	r1, #3584	; 0xe00
  1004dc:	13717c0e 	cmnne	r1, #3584	; 0xe00
  1004e0:	13817c0e 	orrne	r7, r1, #3584	; 0xe00
  1004e4:	13917c0e 	orrsne	r7, r1, #3584	; 0xe00
  1004e8:	13a17c0e 			; <UNDEFINED> instruction: 0x13a17c0e
  1004ec:	13b17c0e 			; <UNDEFINED> instruction: 0x13b17c0e
  1004f0:	13c17c0e 	bicne	r7, r1, #3584	; 0xe00
  1004f4:	13d17c0e 	bicsne	r7, r1, #3584	; 0xe00
  1004f8:	13e17c0e 	mvnne	r7, #3584	; 0xe00
  1004fc:	13f17c0e 	mvnsne	r7, #3584	; 0xe00
  100500:	14017c0e 	strne	r7, [r1], #-3086	; 0xfffff3f2
  100504:	14117c0e 	ldrne	r7, [r1], #-3086	; 0xfffff3f2
  100508:	14217c0e 	strtne	r7, [r1], #-3086	; 0xfffff3f2
  10050c:	14317c0e 	ldrtne	r7, [r1], #-3086	; 0xfffff3f2
  100510:	14417c0e 	strbne	r7, [r1], #-3086	; 0xfffff3f2
  100514:	14517c0e 	ldrbne	r7, [r1], #-3086	; 0xfffff3f2
  100518:	14617c0e 	strbtne	r7, [r1], #-3086	; 0xfffff3f2
  10051c:	14717c0e 	ldrbtne	r7, [r1], #-3086	; 0xfffff3f2
  100520:	14817c0e 	strne	r7, [r1], #3086	; 0xc0e
  100524:	14917c0e 	ldrne	r7, [r1], #3086	; 0xc0e
  100528:	14a17c0e 	strtne	r7, [r1], #3086	; 0xc0e
  10052c:	14b17c0e 	ldrtne	r7, [r1], #3086	; 0xc0e
  100530:	14c17c0e 	strbne	r7, [r1], #3086	; 0xc0e
  100534:	14d17c0e 	ldrbne	r7, [r1], #3086	; 0xc0e
  100538:	14e17c0e 	strbtne	r7, [r1], #3086	; 0xc0e
  10053c:	14f17c0e 	ldrbtne	r7, [r1], #3086	; 0xc0e
  100540:	15017c0e 	strne	r7, [r1, #-3086]	; 0xfffff3f2
  100544:	15117c0e 	ldrne	r7, [r1, #-3086]	; 0xfffff3f2
  100548:	15217c0e 	strne	r7, [r1, #-3086]!	; 0xfffff3f2
  10054c:	15317c0e 	ldrne	r7, [r1, #-3086]!	; 0xfffff3f2
  100550:	15417c0e 	strbne	r7, [r1, #-3086]	; 0xfffff3f2
  100554:	15517c0e 	ldrbne	r7, [r1, #-3086]	; 0xfffff3f2
  100558:	15617c0e 	strbne	r7, [r1, #-3086]!	; 0xfffff3f2
  10055c:	15717c0e 	ldrbne	r7, [r1, #-3086]!	; 0xfffff3f2
  100560:	15817c0e 	strne	r7, [r1, #3086]	; 0xc0e
  100564:	15917c0e 	ldrne	r7, [r1, #3086]	; 0xc0e
  100568:	15a17c0e 	strne	r7, [r1, #3086]!	; 0xc0e
  10056c:	15b17c0e 	ldrne	r7, [r1, #3086]!	; 0xc0e
  100570:	15c17c0e 	strbne	r7, [r1, #3086]	; 0xc0e
  100574:	15d17c0e 	ldrbne	r7, [r1, #3086]	; 0xc0e
  100578:	15e17c0e 	strbne	r7, [r1, #3086]!	; 0xc0e
  10057c:	15f17c0e 	ldrbne	r7, [r1, #3086]!	; 0xc0e
  100580:	16017c0e 	strne	r7, [r1], -lr, lsl #24
  100584:	16117c0e 	ldrne	r7, [r1], -lr, lsl #24
  100588:	16217c0e 	strtne	r7, [r1], -lr, lsl #24
  10058c:	16317c0e 	ldrtne	r7, [r1], -lr, lsl #24
  100590:	16417c0e 	strbne	r7, [r1], -lr, lsl #24
  100594:	16517c0e 	ldrbne	r7, [r1], -lr, lsl #24
  100598:	16617c0e 	strbtne	r7, [r1], -lr, lsl #24
  10059c:	16717c0e 	ldrbtne	r7, [r1], -lr, lsl #24
  1005a0:	16817c0e 	strne	r7, [r1], lr, lsl #24
  1005a4:	16917c0e 	ldrne	r7, [r1], lr, lsl #24
  1005a8:	16a17c0e 	strtne	r7, [r1], lr, lsl #24
  1005ac:	16b17c0e 	ldrtne	r7, [r1], lr, lsl #24
  1005b0:	16c17c0e 	strbne	r7, [r1], lr, lsl #24
  1005b4:	16d17c0e 	ldrbne	r7, [r1], lr, lsl #24
  1005b8:	16e17c0e 	strbtne	r7, [r1], lr, lsl #24
  1005bc:	16f17c0e 	ldrbtne	r7, [r1], lr, lsl #24
  1005c0:	17017c0e 	strne	r7, [r1, -lr, lsl #24]
  1005c4:	17117c0e 	ldrne	r7, [r1, -lr, lsl #24]
  1005c8:	17217c0e 	strne	r7, [r1, -lr, lsl #24]!
  1005cc:	17317c0e 	ldrne	r7, [r1, -lr, lsl #24]!
  1005d0:	17417c0e 	strbne	r7, [r1, -lr, lsl #24]
  1005d4:	17517c0e 	ldrbne	r7, [r1, -lr, lsl #24]
  1005d8:	17617c0e 	strbne	r7, [r1, -lr, lsl #24]!
  1005dc:	17717c0e 	ldrbne	r7, [r1, -lr, lsl #24]!
  1005e0:	17817c0e 	strne	r7, [r1, lr, lsl #24]
  1005e4:	17917c0e 	ldrne	r7, [r1, lr, lsl #24]
  1005e8:	17a17c0e 	strne	r7, [r1, lr, lsl #24]!
  1005ec:	17b17c0e 	ldrne	r7, [r1, lr, lsl #24]!
  1005f0:	17c17c0e 	strbne	r7, [r1, lr, lsl #24]
  1005f4:	17d17c0e 	ldrbne	r7, [r1, lr, lsl #24]
  1005f8:	17e17c0e 	strbne	r7, [r1, lr, lsl #24]!
  1005fc:	17f17c0e 	ldrbne	r7, [r1, lr, lsl #24]!
  100600:	18017c0e 	stmdane	r1, {r1, r2, r3, sl, fp, ip, sp, lr}
  100604:	18117c0e 	ldmdane	r1, {r1, r2, r3, sl, fp, ip, sp, lr}
  100608:	18217c0e 	stmdane	r1!, {r1, r2, r3, sl, fp, ip, sp, lr}
  10060c:	18317c0e 	ldmdane	r1!, {r1, r2, r3, sl, fp, ip, sp, lr}
  100610:	18417c0e 	stmdane	r1, {r1, r2, r3, sl, fp, ip, sp, lr}^
  100614:	18517c0e 	ldmdane	r1, {r1, r2, r3, sl, fp, ip, sp, lr}^
  100618:	18617c0e 	stmdane	r1!, {r1, r2, r3, sl, fp, ip, sp, lr}^
  10061c:	18717c0e 	ldmdane	r1!, {r1, r2, r3, sl, fp, ip, sp, lr}^
  100620:	18817c0e 	stmne	r1, {r1, r2, r3, sl, fp, ip, sp, lr}
  100624:	18917c0e 	ldmne	r1, {r1, r2, r3, sl, fp, ip, sp, lr}
  100628:	18a17c0e 	stmiane	r1!, {r1, r2, r3, sl, fp, ip, sp, lr}
  10062c:	18b17c0e 	ldmne	r1!, {r1, r2, r3, sl, fp, ip, sp, lr}
  100630:	18c17c0e 	stmiane	r1, {r1, r2, r3, sl, fp, ip, sp, lr}^
  100634:	18d17c0e 	ldmne	r1, {r1, r2, r3, sl, fp, ip, sp, lr}^
  100638:	18e17c0e 	stmiane	r1!, {r1, r2, r3, sl, fp, ip, sp, lr}^
  10063c:	18f17c0e 	ldmne	r1!, {r1, r2, r3, sl, fp, ip, sp, lr}^
  100640:	19017c0e 	stmdbne	r1, {r1, r2, r3, sl, fp, ip, sp, lr}
  100644:	19117c0e 	ldmdbne	r1, {r1, r2, r3, sl, fp, ip, sp, lr}
  100648:	19217c0e 	stmdbne	r1!, {r1, r2, r3, sl, fp, ip, sp, lr}
  10064c:	19317c0e 	ldmdbne	r1!, {r1, r2, r3, sl, fp, ip, sp, lr}
  100650:	19417c0e 	stmdbne	r1, {r1, r2, r3, sl, fp, ip, sp, lr}^
  100654:	19517c0e 	ldmdbne	r1, {r1, r2, r3, sl, fp, ip, sp, lr}^
  100658:	19617c0e 	stmdbne	r1!, {r1, r2, r3, sl, fp, ip, sp, lr}^
  10065c:	19717c0e 	ldmdbne	r1!, {r1, r2, r3, sl, fp, ip, sp, lr}^
  100660:	19817c0e 	stmibne	r1, {r1, r2, r3, sl, fp, ip, sp, lr}
  100664:	19917c0e 	ldmibne	r1, {r1, r2, r3, sl, fp, ip, sp, lr}
  100668:	19a17c0e 	stmibne	r1!, {r1, r2, r3, sl, fp, ip, sp, lr}
  10066c:	19b17c0e 	ldmibne	r1!, {r1, r2, r3, sl, fp, ip, sp, lr}
  100670:	19c17c0e 	stmibne	r1, {r1, r2, r3, sl, fp, ip, sp, lr}^
  100674:	19d17c0e 	ldmibne	r1, {r1, r2, r3, sl, fp, ip, sp, lr}^
  100678:	19e17c0e 	stmibne	r1!, {r1, r2, r3, sl, fp, ip, sp, lr}^
  10067c:	19f17c0e 	ldmibne	r1!, {r1, r2, r3, sl, fp, ip, sp, lr}^
  100680:	1a017c0e 	bne	15f6c0 <__cpu0_stack_end+0x2f390>
  100684:	1a117c0e 	bne	55f6c4 <__cpu0_stack_end+0x42f394>
  100688:	1a217c0e 	bne	95f6c8 <__cpu0_stack_end+0x82f398>
  10068c:	1a317c0e 	bne	d5f6cc <__cpu0_stack_end+0xc2f39c>
  100690:	1a417c0e 	bne	115f6d0 <__cpu0_stack_end+0x102f3a0>
  100694:	1a517c0e 	bne	155f6d4 <__cpu0_stack_end+0x142f3a4>
  100698:	1a617c0e 	bne	195f6d8 <__cpu0_stack_end+0x182f3a8>
  10069c:	1a717c0e 	bne	1d5f6dc <__cpu0_stack_end+0x1c2f3ac>
  1006a0:	1a817c0e 	bne	fe15f6e0 <__heap_end+0xbe25f6e0>
  1006a4:	1a917c0e 	bne	fe55f6e4 <__heap_end+0xbe65f6e4>
  1006a8:	1aa17c0e 	bne	fe95f6e8 <__heap_end+0xbea5f6e8>
  1006ac:	1ab17c0e 	bne	fed5f6ec <__heap_end+0xbee5f6ec>
  1006b0:	1ac17c0e 	bne	ff15f6f0 <__heap_end+0xbf25f6f0>
  1006b4:	1ad17c0e 	bne	ff55f6f4 <__heap_end+0xbf65f6f4>
  1006b8:	1ae17c0e 	bne	ff95f6f8 <__heap_end+0xbfa5f6f8>
  1006bc:	1af17c0e 	bne	ffd5f6fc <__heap_end+0xbfe5f6fc>
  1006c0:	1b017c0e 	blne	15f700 <__cpu0_stack_end+0x2f3d0>
  1006c4:	1b117c0e 	blne	55f704 <__cpu0_stack_end+0x42f3d4>
  1006c8:	1b217c0e 	blne	95f708 <__cpu0_stack_end+0x82f3d8>
  1006cc:	1b317c0e 	blne	d5f70c <__cpu0_stack_end+0xc2f3dc>
  1006d0:	1b417c0e 	blne	115f710 <__cpu0_stack_end+0x102f3e0>
  1006d4:	1b517c0e 	blne	155f714 <__cpu0_stack_end+0x142f3e4>
  1006d8:	1b617c0e 	blne	195f718 <__cpu0_stack_end+0x182f3e8>
  1006dc:	1b717c0e 	blne	1d5f71c <__cpu0_stack_end+0x1c2f3ec>
  1006e0:	1b817c0e 	blne	fe15f720 <__heap_end+0xbe25f720>
  1006e4:	1b917c0e 	blne	fe55f724 <__heap_end+0xbe65f724>
  1006e8:	1ba17c0e 	blne	fe95f728 <__heap_end+0xbea5f728>
  1006ec:	1bb17c0e 	blne	fed5f72c <__heap_end+0xbee5f72c>
  1006f0:	1bc17c0e 	blne	ff15f730 <__heap_end+0xbf25f730>
  1006f4:	1bd17c0e 	blne	ff55f734 <__heap_end+0xbf65f734>
  1006f8:	1be17c0e 	blne	ff95f738 <__heap_end+0xbfa5f738>
  1006fc:	1bf17c0e 	blne	ffd5f73c <__heap_end+0xbfe5f73c>
  100700:	1c017c0e 	stcne	12, cr7, [r1], {14}
  100704:	1c117c0e 	ldcne	12, cr7, [r1], {14}
  100708:	1c217c0e 	stcne	12, cr7, [r1], #-56	; 0xffffffc8
  10070c:	1c317c0e 	ldcne	12, cr7, [r1], #-56	; 0xffffffc8
  100710:	1c417c0e 	mcrrne	12, 0, r7, r1, cr14
  100714:	1c517c0e 	mrrcne	12, 0, r7, r1, cr14
  100718:	1c617c0e 	stclne	12, cr7, [r1], #-56	; 0xffffffc8
  10071c:	1c717c0e 	ldclne	12, cr7, [r1], #-56	; 0xffffffc8
  100720:	1c817c0e 	stcne	12, cr7, [r1], {14}
  100724:	1c917c0e 	ldcne	12, cr7, [r1], {14}
  100728:	1ca17c0e 	stcne	12, cr7, [r1], #56	; 0x38
  10072c:	1cb17c0e 	ldcne	12, cr7, [r1], #56	; 0x38
  100730:	1cc17c0e 	stclne	12, cr7, [r1], {14}
  100734:	1cd17c0e 	ldclne	12, cr7, [r1], {14}
  100738:	1ce17c0e 	stclne	12, cr7, [r1], #56	; 0x38
  10073c:	1cf17c0e 	ldclne	12, cr7, [r1], #56	; 0x38
  100740:	1d017c0e 	stcne	12, cr7, [r1, #-56]	; 0xffffffc8
  100744:	1d117c0e 	ldcne	12, cr7, [r1, #-56]	; 0xffffffc8
  100748:	1d217c0e 	stcne	12, cr7, [r1, #-56]!	; 0xffffffc8
  10074c:	1d317c0e 	ldcne	12, cr7, [r1, #-56]!	; 0xffffffc8
  100750:	1d417c0e 	stclne	12, cr7, [r1, #-56]	; 0xffffffc8
  100754:	1d517c0e 	ldclne	12, cr7, [r1, #-56]	; 0xffffffc8
  100758:	1d617c0e 	stclne	12, cr7, [r1, #-56]!	; 0xffffffc8
  10075c:	1d717c0e 	ldclne	12, cr7, [r1, #-56]!	; 0xffffffc8
  100760:	1d817c0e 	stcne	12, cr7, [r1, #56]	; 0x38
  100764:	1d917c0e 	ldcne	12, cr7, [r1, #56]	; 0x38
  100768:	1da17c0e 	stcne	12, cr7, [r1, #56]!	; 0x38
  10076c:	1db17c0e 	ldcne	12, cr7, [r1, #56]!	; 0x38
  100770:	1dc17c0e 	stclne	12, cr7, [r1, #56]	; 0x38
  100774:	1dd17c0e 	ldclne	12, cr7, [r1, #56]	; 0x38
  100778:	1de17c0e 	stclne	12, cr7, [r1, #56]!	; 0x38
  10077c:	1df17c0e 	ldclne	12, cr7, [r1, #56]!	; 0x38
  100780:	1e017c0e 	cdpne	12, 0, cr7, cr1, cr14, {0}
  100784:	1e117c0e 	cdpne	12, 1, cr7, cr1, cr14, {0}
  100788:	1e217c0e 	cdpne	12, 2, cr7, cr1, cr14, {0}
  10078c:	1e317c0e 	cdpne	12, 3, cr7, cr1, cr14, {0}
  100790:	1e417c0e 	cdpne	12, 4, cr7, cr1, cr14, {0}
  100794:	1e517c0e 	cdpne	12, 5, cr7, cr1, cr14, {0}
  100798:	1e617c0e 	cdpne	12, 6, cr7, cr1, cr14, {0}
  10079c:	1e717c0e 	cdpne	12, 7, cr7, cr1, cr14, {0}
  1007a0:	1e817c0e 	cdpne	12, 8, cr7, cr1, cr14, {0}
  1007a4:	1e917c0e 	cdpne	12, 9, cr7, cr1, cr14, {0}
  1007a8:	1ea17c0e 	cdpne	12, 10, cr7, cr1, cr14, {0}
  1007ac:	1eb17c0e 	cdpne	12, 11, cr7, cr1, cr14, {0}
  1007b0:	1ec17c0e 	cdpne	12, 12, cr7, cr1, cr14, {0}
  1007b4:	1ed17c0e 	cdpne	12, 13, cr7, cr1, cr14, {0}
  1007b8:	1ee17c0e 	cdpne	12, 14, cr7, cr1, cr14, {0}
  1007bc:	1ef17c0e 	cdpne	12, 15, cr7, cr1, cr14, {0}
  1007c0:	1f017c0e 	svcne	0x00017c0e
  1007c4:	1f117c0e 	svcne	0x00117c0e
  1007c8:	1f217c0e 	svcne	0x00217c0e
  1007cc:	1f317c0e 	svcne	0x00317c0e
  1007d0:	1f417c0e 	svcne	0x00417c0e
  1007d4:	1f517c0e 	svcne	0x00517c0e
  1007d8:	1f617c0e 	svcne	0x00617c0e
  1007dc:	1f717c0e 	svcne	0x00717c0e
  1007e0:	1f817c0e 	svcne	0x00817c0e
  1007e4:	1f917c0e 	svcne	0x00917c0e
  1007e8:	1fa17c0e 	svcne	0x00a17c0e
  1007ec:	1fb17c0e 	svcne	0x00b17c0e
  1007f0:	1fc17c0e 	svcne	0x00c17c0e
  1007f4:	1fd17c0e 	svcne	0x00d17c0e
  1007f8:	1fe17c0e 	svcne	0x00e17c0e
  1007fc:	1ff17c0e 	svcne	0x00f17c0e
  100800:	20017c0e 	andcs	r7, r1, lr, lsl #24
  100804:	20117c0e 	andscs	r7, r1, lr, lsl #24
  100808:	20217c0e 	eorcs	r7, r1, lr, lsl #24
  10080c:	20317c0e 	eorscs	r7, r1, lr, lsl #24
  100810:	20417c0e 	subcs	r7, r1, lr, lsl #24
  100814:	20517c0e 	subscs	r7, r1, lr, lsl #24
  100818:	20617c0e 	rsbcs	r7, r1, lr, lsl #24
  10081c:	20717c0e 	rsbscs	r7, r1, lr, lsl #24
  100820:	20817c0e 	addcs	r7, r1, lr, lsl #24
  100824:	20917c0e 	addscs	r7, r1, lr, lsl #24
  100828:	20a17c0e 	adccs	r7, r1, lr, lsl #24
  10082c:	20b17c0e 	adcscs	r7, r1, lr, lsl #24
  100830:	20c17c0e 	sbccs	r7, r1, lr, lsl #24
  100834:	20d17c0e 	sbcscs	r7, r1, lr, lsl #24
  100838:	20e17c0e 	rsccs	r7, r1, lr, lsl #24
  10083c:	20f17c0e 	rscscs	r7, r1, lr, lsl #24
  100840:	21017c0e 	tstcs	r1, lr, lsl #24
  100844:	21117c0e 	tstcs	r1, lr, lsl #24
  100848:	21217c0e 			; <UNDEFINED> instruction: 0x21217c0e
  10084c:	21317c0e 	teqcs	r1, lr, lsl #24
  100850:	21417c0e 	cmpcs	r1, lr, lsl #24
  100854:	21517c0e 	cmpcs	r1, lr, lsl #24
  100858:	21617c0e 	cmncs	r1, lr, lsl #24
  10085c:	21717c0e 	cmncs	r1, lr, lsl #24
  100860:	21817c0e 	orrcs	r7, r1, lr, lsl #24
  100864:	21917c0e 	orrscs	r7, r1, lr, lsl #24
  100868:	21a17c0e 			; <UNDEFINED> instruction: 0x21a17c0e
  10086c:	21b17c0e 			; <UNDEFINED> instruction: 0x21b17c0e
  100870:	21c17c0e 	biccs	r7, r1, lr, lsl #24
  100874:	21d17c0e 	bicscs	r7, r1, lr, lsl #24
  100878:	21e17c0e 	mvncs	r7, lr, lsl #24
  10087c:	21f17c0e 	mvnscs	r7, lr, lsl #24
  100880:	22017c0e 	andcs	r7, r1, #3584	; 0xe00
  100884:	22117c0e 	andscs	r7, r1, #3584	; 0xe00
  100888:	22217c0e 	eorcs	r7, r1, #3584	; 0xe00
  10088c:	22317c0e 	eorscs	r7, r1, #3584	; 0xe00
  100890:	22417c0e 	subcs	r7, r1, #3584	; 0xe00
  100894:	22517c0e 	subscs	r7, r1, #3584	; 0xe00
  100898:	22617c0e 	rsbcs	r7, r1, #3584	; 0xe00
  10089c:	22717c0e 	rsbscs	r7, r1, #3584	; 0xe00
  1008a0:	22817c0e 	addcs	r7, r1, #3584	; 0xe00
  1008a4:	22917c0e 	addscs	r7, r1, #3584	; 0xe00
  1008a8:	22a17c0e 	adccs	r7, r1, #3584	; 0xe00
  1008ac:	22b17c0e 	adcscs	r7, r1, #3584	; 0xe00
  1008b0:	22c17c0e 	sbccs	r7, r1, #3584	; 0xe00
  1008b4:	22d17c0e 	sbcscs	r7, r1, #3584	; 0xe00
  1008b8:	22e17c0e 	rsccs	r7, r1, #3584	; 0xe00
  1008bc:	22f17c0e 	rscscs	r7, r1, #3584	; 0xe00
  1008c0:	23017c0e 	movwcs	r7, #7182	; 0x1c0e
  1008c4:	23117c0e 	tstcs	r1, #3584	; 0xe00
  1008c8:	23217c0e 			; <UNDEFINED> instruction: 0x23217c0e
  1008cc:	23317c0e 	teqcs	r1, #3584	; 0xe00
  1008d0:	23417c0e 	movtcs	r7, #7182	; 0x1c0e
  1008d4:	23517c0e 	cmpcs	r1, #3584	; 0xe00
  1008d8:	23617c0e 	cmncs	r1, #3584	; 0xe00
  1008dc:	23717c0e 	cmncs	r1, #3584	; 0xe00
  1008e0:	23817c0e 	orrcs	r7, r1, #3584	; 0xe00
  1008e4:	23917c0e 	orrscs	r7, r1, #3584	; 0xe00
  1008e8:	23a17c0e 			; <UNDEFINED> instruction: 0x23a17c0e
  1008ec:	23b17c0e 			; <UNDEFINED> instruction: 0x23b17c0e
  1008f0:	23c17c0e 	biccs	r7, r1, #3584	; 0xe00
  1008f4:	23d17c0e 	bicscs	r7, r1, #3584	; 0xe00
  1008f8:	23e17c0e 	mvncs	r7, #3584	; 0xe00
  1008fc:	23f17c0e 	mvnscs	r7, #3584	; 0xe00
  100900:	24017c0e 	strcs	r7, [r1], #-3086	; 0xfffff3f2
  100904:	24117c0e 	ldrcs	r7, [r1], #-3086	; 0xfffff3f2
  100908:	24217c0e 	strtcs	r7, [r1], #-3086	; 0xfffff3f2
  10090c:	24317c0e 	ldrtcs	r7, [r1], #-3086	; 0xfffff3f2
  100910:	24417c0e 	strbcs	r7, [r1], #-3086	; 0xfffff3f2
  100914:	24517c0e 	ldrbcs	r7, [r1], #-3086	; 0xfffff3f2
  100918:	24617c0e 	strbtcs	r7, [r1], #-3086	; 0xfffff3f2
  10091c:	24717c0e 	ldrbtcs	r7, [r1], #-3086	; 0xfffff3f2
  100920:	24817c0e 	strcs	r7, [r1], #3086	; 0xc0e
  100924:	24917c0e 	ldrcs	r7, [r1], #3086	; 0xc0e
  100928:	24a17c0e 	strtcs	r7, [r1], #3086	; 0xc0e
  10092c:	24b17c0e 	ldrtcs	r7, [r1], #3086	; 0xc0e
  100930:	24c17c0e 	strbcs	r7, [r1], #3086	; 0xc0e
  100934:	24d17c0e 	ldrbcs	r7, [r1], #3086	; 0xc0e
  100938:	24e17c0e 	strbtcs	r7, [r1], #3086	; 0xc0e
  10093c:	24f17c0e 	ldrbtcs	r7, [r1], #3086	; 0xc0e
  100940:	25017c0e 	strcs	r7, [r1, #-3086]	; 0xfffff3f2
  100944:	25117c0e 	ldrcs	r7, [r1, #-3086]	; 0xfffff3f2
  100948:	25217c0e 	strcs	r7, [r1, #-3086]!	; 0xfffff3f2
  10094c:	25317c0e 	ldrcs	r7, [r1, #-3086]!	; 0xfffff3f2
  100950:	25417c0e 	strbcs	r7, [r1, #-3086]	; 0xfffff3f2
  100954:	25517c0e 	ldrbcs	r7, [r1, #-3086]	; 0xfffff3f2
  100958:	25617c0e 	strbcs	r7, [r1, #-3086]!	; 0xfffff3f2
  10095c:	25717c0e 	ldrbcs	r7, [r1, #-3086]!	; 0xfffff3f2
  100960:	25817c0e 	strcs	r7, [r1, #3086]	; 0xc0e
  100964:	25917c0e 	ldrcs	r7, [r1, #3086]	; 0xc0e
  100968:	25a17c0e 	strcs	r7, [r1, #3086]!	; 0xc0e
  10096c:	25b17c0e 	ldrcs	r7, [r1, #3086]!	; 0xc0e
  100970:	25c17c0e 	strbcs	r7, [r1, #3086]	; 0xc0e
  100974:	25d17c0e 	ldrbcs	r7, [r1, #3086]	; 0xc0e
  100978:	25e17c0e 	strbcs	r7, [r1, #3086]!	; 0xc0e
  10097c:	25f17c0e 	ldrbcs	r7, [r1, #3086]!	; 0xc0e
  100980:	26017c0e 	strcs	r7, [r1], -lr, lsl #24
  100984:	26117c0e 	ldrcs	r7, [r1], -lr, lsl #24
  100988:	26217c0e 	strtcs	r7, [r1], -lr, lsl #24
  10098c:	26317c0e 	ldrtcs	r7, [r1], -lr, lsl #24
  100990:	26417c0e 	strbcs	r7, [r1], -lr, lsl #24
  100994:	26517c0e 	ldrbcs	r7, [r1], -lr, lsl #24
  100998:	26617c0e 	strbtcs	r7, [r1], -lr, lsl #24
  10099c:	26717c0e 	ldrbtcs	r7, [r1], -lr, lsl #24
  1009a0:	26817c0e 	strcs	r7, [r1], lr, lsl #24
  1009a4:	26917c0e 	ldrcs	r7, [r1], lr, lsl #24
  1009a8:	26a17c0e 	strtcs	r7, [r1], lr, lsl #24
  1009ac:	26b17c0e 	ldrtcs	r7, [r1], lr, lsl #24
  1009b0:	26c17c0e 	strbcs	r7, [r1], lr, lsl #24
  1009b4:	26d17c0e 	ldrbcs	r7, [r1], lr, lsl #24
  1009b8:	26e17c0e 	strbtcs	r7, [r1], lr, lsl #24
  1009bc:	26f17c0e 	ldrbtcs	r7, [r1], lr, lsl #24
  1009c0:	27017c0e 	strcs	r7, [r1, -lr, lsl #24]
  1009c4:	27117c0e 	ldrcs	r7, [r1, -lr, lsl #24]
  1009c8:	27217c0e 	strcs	r7, [r1, -lr, lsl #24]!
  1009cc:	27317c0e 	ldrcs	r7, [r1, -lr, lsl #24]!
  1009d0:	27417c0e 	strbcs	r7, [r1, -lr, lsl #24]
  1009d4:	27517c0e 	ldrbcs	r7, [r1, -lr, lsl #24]
  1009d8:	27617c0e 	strbcs	r7, [r1, -lr, lsl #24]!
  1009dc:	27717c0e 	ldrbcs	r7, [r1, -lr, lsl #24]!
  1009e0:	27817c0e 	strcs	r7, [r1, lr, lsl #24]
  1009e4:	27917c0e 	ldrcs	r7, [r1, lr, lsl #24]
  1009e8:	27a17c0e 	strcs	r7, [r1, lr, lsl #24]!
  1009ec:	27b17c0e 	ldrcs	r7, [r1, lr, lsl #24]!
  1009f0:	27c17c0e 	strbcs	r7, [r1, lr, lsl #24]
  1009f4:	27d17c0e 	ldrbcs	r7, [r1, lr, lsl #24]
  1009f8:	27e17c0e 	strbcs	r7, [r1, lr, lsl #24]!
  1009fc:	27f17c0e 	ldrbcs	r7, [r1, lr, lsl #24]!
  100a00:	28017c0e 	stmdacs	r1, {r1, r2, r3, sl, fp, ip, sp, lr}
  100a04:	28117c0e 	ldmdacs	r1, {r1, r2, r3, sl, fp, ip, sp, lr}
  100a08:	28217c0e 	stmdacs	r1!, {r1, r2, r3, sl, fp, ip, sp, lr}
  100a0c:	28317c0e 	ldmdacs	r1!, {r1, r2, r3, sl, fp, ip, sp, lr}
  100a10:	28417c0e 	stmdacs	r1, {r1, r2, r3, sl, fp, ip, sp, lr}^
  100a14:	28517c0e 	ldmdacs	r1, {r1, r2, r3, sl, fp, ip, sp, lr}^
  100a18:	28617c0e 	stmdacs	r1!, {r1, r2, r3, sl, fp, ip, sp, lr}^
  100a1c:	28717c0e 	ldmdacs	r1!, {r1, r2, r3, sl, fp, ip, sp, lr}^
  100a20:	28817c0e 	stmcs	r1, {r1, r2, r3, sl, fp, ip, sp, lr}
  100a24:	28917c0e 	ldmcs	r1, {r1, r2, r3, sl, fp, ip, sp, lr}
  100a28:	28a17c0e 	stmiacs	r1!, {r1, r2, r3, sl, fp, ip, sp, lr}
  100a2c:	28b17c0e 	ldmcs	r1!, {r1, r2, r3, sl, fp, ip, sp, lr}
  100a30:	28c17c0e 	stmiacs	r1, {r1, r2, r3, sl, fp, ip, sp, lr}^
  100a34:	28d17c0e 	ldmcs	r1, {r1, r2, r3, sl, fp, ip, sp, lr}^
  100a38:	28e17c0e 	stmiacs	r1!, {r1, r2, r3, sl, fp, ip, sp, lr}^
  100a3c:	28f17c0e 	ldmcs	r1!, {r1, r2, r3, sl, fp, ip, sp, lr}^
  100a40:	29017c0e 	stmdbcs	r1, {r1, r2, r3, sl, fp, ip, sp, lr}
  100a44:	29117c0e 	ldmdbcs	r1, {r1, r2, r3, sl, fp, ip, sp, lr}
  100a48:	29217c0e 	stmdbcs	r1!, {r1, r2, r3, sl, fp, ip, sp, lr}
  100a4c:	29317c0e 	ldmdbcs	r1!, {r1, r2, r3, sl, fp, ip, sp, lr}
  100a50:	29417c0e 	stmdbcs	r1, {r1, r2, r3, sl, fp, ip, sp, lr}^
  100a54:	29517c0e 	ldmdbcs	r1, {r1, r2, r3, sl, fp, ip, sp, lr}^
  100a58:	29617c0e 	stmdbcs	r1!, {r1, r2, r3, sl, fp, ip, sp, lr}^
  100a5c:	29717c0e 	ldmdbcs	r1!, {r1, r2, r3, sl, fp, ip, sp, lr}^
  100a60:	29817c0e 	stmibcs	r1, {r1, r2, r3, sl, fp, ip, sp, lr}
  100a64:	29917c0e 	ldmibcs	r1, {r1, r2, r3, sl, fp, ip, sp, lr}
  100a68:	29a17c0e 	stmibcs	r1!, {r1, r2, r3, sl, fp, ip, sp, lr}
  100a6c:	29b17c0e 	ldmibcs	r1!, {r1, r2, r3, sl, fp, ip, sp, lr}
  100a70:	29c17c0e 	stmibcs	r1, {r1, r2, r3, sl, fp, ip, sp, lr}^
  100a74:	29d17c0e 	ldmibcs	r1, {r1, r2, r3, sl, fp, ip, sp, lr}^
  100a78:	29e17c0e 	stmibcs	r1!, {r1, r2, r3, sl, fp, ip, sp, lr}^
  100a7c:	29f17c0e 	ldmibcs	r1!, {r1, r2, r3, sl, fp, ip, sp, lr}^
  100a80:	2a017c0e 	bcs	15fac0 <__cpu0_stack_end+0x2f790>
  100a84:	2a117c0e 	bcs	55fac4 <__cpu0_stack_end+0x42f794>
  100a88:	2a217c0e 	bcs	95fac8 <__cpu0_stack_end+0x82f798>
  100a8c:	2a317c0e 	bcs	d5facc <__cpu0_stack_end+0xc2f79c>
  100a90:	2a417c0e 	bcs	115fad0 <__cpu0_stack_end+0x102f7a0>
  100a94:	2a517c0e 	bcs	155fad4 <__cpu0_stack_end+0x142f7a4>
  100a98:	2a617c0e 	bcs	195fad8 <__cpu0_stack_end+0x182f7a8>
  100a9c:	2a717c0e 	bcs	1d5fadc <__cpu0_stack_end+0x1c2f7ac>
  100aa0:	2a817c0e 	bcs	fe15fae0 <__heap_end+0xbe25fae0>
  100aa4:	2a917c0e 	bcs	fe55fae4 <__heap_end+0xbe65fae4>
  100aa8:	2aa17c0e 	bcs	fe95fae8 <__heap_end+0xbea5fae8>
  100aac:	2ab17c0e 	bcs	fed5faec <__heap_end+0xbee5faec>
  100ab0:	2ac17c0e 	bcs	ff15faf0 <__heap_end+0xbf25faf0>
  100ab4:	2ad17c0e 	bcs	ff55faf4 <__heap_end+0xbf65faf4>
  100ab8:	2ae17c0e 	bcs	ff95faf8 <__heap_end+0xbfa5faf8>
  100abc:	2af17c0e 	bcs	ffd5fafc <__heap_end+0xbfe5fafc>
  100ac0:	2b017c0e 	blcs	15fb00 <__cpu0_stack_end+0x2f7d0>
  100ac4:	2b117c0e 	blcs	55fb04 <__cpu0_stack_end+0x42f7d4>
  100ac8:	2b217c0e 	blcs	95fb08 <__cpu0_stack_end+0x82f7d8>
  100acc:	2b317c0e 	blcs	d5fb0c <__cpu0_stack_end+0xc2f7dc>
  100ad0:	2b417c0e 	blcs	115fb10 <__cpu0_stack_end+0x102f7e0>
  100ad4:	2b517c0e 	blcs	155fb14 <__cpu0_stack_end+0x142f7e4>
  100ad8:	2b617c0e 	blcs	195fb18 <__cpu0_stack_end+0x182f7e8>
  100adc:	2b717c0e 	blcs	1d5fb1c <__cpu0_stack_end+0x1c2f7ec>
  100ae0:	2b817c0e 	blcs	fe15fb20 <__heap_end+0xbe25fb20>
  100ae4:	2b917c0e 	blcs	fe55fb24 <__heap_end+0xbe65fb24>
  100ae8:	2ba17c0e 	blcs	fe95fb28 <__heap_end+0xbea5fb28>
  100aec:	2bb17c0e 	blcs	fed5fb2c <__heap_end+0xbee5fb2c>
  100af0:	2bc17c0e 	blcs	ff15fb30 <__heap_end+0xbf25fb30>
  100af4:	2bd17c0e 	blcs	ff55fb34 <__heap_end+0xbf65fb34>
  100af8:	2be17c0e 	blcs	ff95fb38 <__heap_end+0xbfa5fb38>
  100afc:	2bf17c0e 	blcs	ffd5fb3c <__heap_end+0xbfe5fb3c>
  100b00:	2c017c0e 	stccs	12, cr7, [r1], {14}
  100b04:	2c117c0e 	ldccs	12, cr7, [r1], {14}
  100b08:	2c217c0e 	stccs	12, cr7, [r1], #-56	; 0xffffffc8
  100b0c:	2c317c0e 	ldccs	12, cr7, [r1], #-56	; 0xffffffc8
  100b10:	2c417c0e 	mcrrcs	12, 0, r7, r1, cr14
  100b14:	2c517c0e 	mrrccs	12, 0, r7, r1, cr14
  100b18:	2c617c0e 	stclcs	12, cr7, [r1], #-56	; 0xffffffc8
  100b1c:	2c717c0e 	ldclcs	12, cr7, [r1], #-56	; 0xffffffc8
  100b20:	2c817c0e 	stccs	12, cr7, [r1], {14}
  100b24:	2c917c0e 	ldccs	12, cr7, [r1], {14}
  100b28:	2ca17c0e 	stccs	12, cr7, [r1], #56	; 0x38
  100b2c:	2cb17c0e 	ldccs	12, cr7, [r1], #56	; 0x38
  100b30:	2cc17c0e 	stclcs	12, cr7, [r1], {14}
  100b34:	2cd17c0e 	ldclcs	12, cr7, [r1], {14}
  100b38:	2ce17c0e 	stclcs	12, cr7, [r1], #56	; 0x38
  100b3c:	2cf17c0e 	ldclcs	12, cr7, [r1], #56	; 0x38
  100b40:	2d017c0e 	stccs	12, cr7, [r1, #-56]	; 0xffffffc8
  100b44:	2d117c0e 	ldccs	12, cr7, [r1, #-56]	; 0xffffffc8
  100b48:	2d217c0e 	stccs	12, cr7, [r1, #-56]!	; 0xffffffc8
  100b4c:	2d317c0e 	ldccs	12, cr7, [r1, #-56]!	; 0xffffffc8
  100b50:	2d417c0e 	stclcs	12, cr7, [r1, #-56]	; 0xffffffc8
  100b54:	2d517c0e 	ldclcs	12, cr7, [r1, #-56]	; 0xffffffc8
  100b58:	2d617c0e 	stclcs	12, cr7, [r1, #-56]!	; 0xffffffc8
  100b5c:	2d717c0e 	ldclcs	12, cr7, [r1, #-56]!	; 0xffffffc8
  100b60:	2d817c0e 	stccs	12, cr7, [r1, #56]	; 0x38
  100b64:	2d917c0e 	ldccs	12, cr7, [r1, #56]	; 0x38
  100b68:	2da17c0e 	stccs	12, cr7, [r1, #56]!	; 0x38
  100b6c:	2db17c0e 	ldccs	12, cr7, [r1, #56]!	; 0x38
  100b70:	2dc17c0e 	stclcs	12, cr7, [r1, #56]	; 0x38
  100b74:	2dd17c0e 	ldclcs	12, cr7, [r1, #56]	; 0x38
  100b78:	2de17c0e 	stclcs	12, cr7, [r1, #56]!	; 0x38
  100b7c:	2df17c0e 	ldclcs	12, cr7, [r1, #56]!	; 0x38
  100b80:	2e017c0e 	cdpcs	12, 0, cr7, cr1, cr14, {0}
  100b84:	2e117c0e 	cdpcs	12, 1, cr7, cr1, cr14, {0}
  100b88:	2e217c0e 	cdpcs	12, 2, cr7, cr1, cr14, {0}
  100b8c:	2e317c0e 	cdpcs	12, 3, cr7, cr1, cr14, {0}
  100b90:	2e417c0e 	cdpcs	12, 4, cr7, cr1, cr14, {0}
  100b94:	2e517c0e 	cdpcs	12, 5, cr7, cr1, cr14, {0}
  100b98:	2e617c0e 	cdpcs	12, 6, cr7, cr1, cr14, {0}
  100b9c:	2e717c0e 	cdpcs	12, 7, cr7, cr1, cr14, {0}
  100ba0:	2e817c0e 	cdpcs	12, 8, cr7, cr1, cr14, {0}
  100ba4:	2e917c0e 	cdpcs	12, 9, cr7, cr1, cr14, {0}
  100ba8:	2ea17c0e 	cdpcs	12, 10, cr7, cr1, cr14, {0}
  100bac:	2eb17c0e 	cdpcs	12, 11, cr7, cr1, cr14, {0}
  100bb0:	2ec17c0e 	cdpcs	12, 12, cr7, cr1, cr14, {0}
  100bb4:	2ed17c0e 	cdpcs	12, 13, cr7, cr1, cr14, {0}
  100bb8:	2ee17c0e 	cdpcs	12, 14, cr7, cr1, cr14, {0}
  100bbc:	2ef17c0e 	cdpcs	12, 15, cr7, cr1, cr14, {0}
  100bc0:	2f017c0e 	svccs	0x00017c0e
  100bc4:	2f117c0e 	svccs	0x00117c0e
  100bc8:	2f217c0e 	svccs	0x00217c0e
  100bcc:	2f317c0e 	svccs	0x00317c0e
  100bd0:	2f417c0e 	svccs	0x00417c0e
  100bd4:	2f517c0e 	svccs	0x00517c0e
  100bd8:	2f617c0e 	svccs	0x00617c0e
  100bdc:	2f717c0e 	svccs	0x00717c0e
  100be0:	2f817c0e 	svccs	0x00817c0e
  100be4:	2f917c0e 	svccs	0x00917c0e
  100be8:	2fa17c0e 	svccs	0x00a17c0e
  100bec:	2fb17c0e 	svccs	0x00b17c0e
  100bf0:	2fc17c0e 	svccs	0x00c17c0e
  100bf4:	2fd17c0e 	svccs	0x00d17c0e
  100bf8:	2fe17c0e 	svccs	0x00e17c0e
  100bfc:	2ff17c0e 	svccs	0x00f17c0e
  100c00:	30017c0e 	andcc	r7, r1, lr, lsl #24
  100c04:	30117c0e 	andscc	r7, r1, lr, lsl #24
  100c08:	30217c0e 	eorcc	r7, r1, lr, lsl #24
  100c0c:	30317c0e 	eorscc	r7, r1, lr, lsl #24
  100c10:	30417c0e 	subcc	r7, r1, lr, lsl #24
  100c14:	30517c0e 	subscc	r7, r1, lr, lsl #24
  100c18:	30617c0e 	rsbcc	r7, r1, lr, lsl #24
  100c1c:	30717c0e 	rsbscc	r7, r1, lr, lsl #24
  100c20:	30817c0e 	addcc	r7, r1, lr, lsl #24
  100c24:	30917c0e 	addscc	r7, r1, lr, lsl #24
  100c28:	30a17c0e 	adccc	r7, r1, lr, lsl #24
  100c2c:	30b17c0e 	adcscc	r7, r1, lr, lsl #24
  100c30:	30c17c0e 	sbccc	r7, r1, lr, lsl #24
  100c34:	30d17c0e 	sbcscc	r7, r1, lr, lsl #24
  100c38:	30e17c0e 	rsccc	r7, r1, lr, lsl #24
  100c3c:	30f17c0e 	rscscc	r7, r1, lr, lsl #24
  100c40:	31017c0e 	tstcc	r1, lr, lsl #24
  100c44:	31117c0e 	tstcc	r1, lr, lsl #24
  100c48:	31217c0e 			; <UNDEFINED> instruction: 0x31217c0e
  100c4c:	31317c0e 	teqcc	r1, lr, lsl #24
  100c50:	31417c0e 	cmpcc	r1, lr, lsl #24
  100c54:	31517c0e 	cmpcc	r1, lr, lsl #24
  100c58:	31617c0e 	cmncc	r1, lr, lsl #24
  100c5c:	31717c0e 	cmncc	r1, lr, lsl #24
  100c60:	31817c0e 	orrcc	r7, r1, lr, lsl #24
  100c64:	31917c0e 	orrscc	r7, r1, lr, lsl #24
  100c68:	31a17c0e 			; <UNDEFINED> instruction: 0x31a17c0e
  100c6c:	31b17c0e 			; <UNDEFINED> instruction: 0x31b17c0e
  100c70:	31c17c0e 	biccc	r7, r1, lr, lsl #24
  100c74:	31d17c0e 	bicscc	r7, r1, lr, lsl #24
  100c78:	31e17c0e 	mvncc	r7, lr, lsl #24
  100c7c:	31f17c0e 	mvnscc	r7, lr, lsl #24
  100c80:	32017c0e 	andcc	r7, r1, #3584	; 0xe00
  100c84:	32117c0e 	andscc	r7, r1, #3584	; 0xe00
  100c88:	32217c0e 	eorcc	r7, r1, #3584	; 0xe00
  100c8c:	32317c0e 	eorscc	r7, r1, #3584	; 0xe00
  100c90:	32417c0e 	subcc	r7, r1, #3584	; 0xe00
  100c94:	32517c0e 	subscc	r7, r1, #3584	; 0xe00
  100c98:	32617c0e 	rsbcc	r7, r1, #3584	; 0xe00
  100c9c:	32717c0e 	rsbscc	r7, r1, #3584	; 0xe00
  100ca0:	32817c0e 	addcc	r7, r1, #3584	; 0xe00
  100ca4:	32917c0e 	addscc	r7, r1, #3584	; 0xe00
  100ca8:	32a17c0e 	adccc	r7, r1, #3584	; 0xe00
  100cac:	32b17c0e 	adcscc	r7, r1, #3584	; 0xe00
  100cb0:	32c17c0e 	sbccc	r7, r1, #3584	; 0xe00
  100cb4:	32d17c0e 	sbcscc	r7, r1, #3584	; 0xe00
  100cb8:	32e17c0e 	rsccc	r7, r1, #3584	; 0xe00
  100cbc:	32f17c0e 	rscscc	r7, r1, #3584	; 0xe00
  100cc0:	33017c0e 	movwcc	r7, #7182	; 0x1c0e
  100cc4:	33117c0e 	tstcc	r1, #3584	; 0xe00
  100cc8:	33217c0e 			; <UNDEFINED> instruction: 0x33217c0e
  100ccc:	33317c0e 	teqcc	r1, #3584	; 0xe00
  100cd0:	33417c0e 	movtcc	r7, #7182	; 0x1c0e
  100cd4:	33517c0e 	cmpcc	r1, #3584	; 0xe00
  100cd8:	33617c0e 	cmncc	r1, #3584	; 0xe00
  100cdc:	33717c0e 	cmncc	r1, #3584	; 0xe00
  100ce0:	33817c0e 	orrcc	r7, r1, #3584	; 0xe00
  100ce4:	33917c0e 	orrscc	r7, r1, #3584	; 0xe00
  100ce8:	33a17c0e 			; <UNDEFINED> instruction: 0x33a17c0e
  100cec:	33b17c0e 			; <UNDEFINED> instruction: 0x33b17c0e
  100cf0:	33c17c0e 	biccc	r7, r1, #3584	; 0xe00
  100cf4:	33d17c0e 	bicscc	r7, r1, #3584	; 0xe00
  100cf8:	33e17c0e 	mvncc	r7, #3584	; 0xe00
  100cfc:	33f17c0e 	mvnscc	r7, #3584	; 0xe00
  100d00:	34017c0e 	strcc	r7, [r1], #-3086	; 0xfffff3f2
  100d04:	34117c0e 	ldrcc	r7, [r1], #-3086	; 0xfffff3f2
  100d08:	34217c0e 	strtcc	r7, [r1], #-3086	; 0xfffff3f2
  100d0c:	34317c0e 	ldrtcc	r7, [r1], #-3086	; 0xfffff3f2
  100d10:	34417c0e 	strbcc	r7, [r1], #-3086	; 0xfffff3f2
  100d14:	34517c0e 	ldrbcc	r7, [r1], #-3086	; 0xfffff3f2
  100d18:	34617c0e 	strbtcc	r7, [r1], #-3086	; 0xfffff3f2
  100d1c:	34717c0e 	ldrbtcc	r7, [r1], #-3086	; 0xfffff3f2
  100d20:	34817c0e 	strcc	r7, [r1], #3086	; 0xc0e
  100d24:	34917c0e 	ldrcc	r7, [r1], #3086	; 0xc0e
  100d28:	34a17c0e 	strtcc	r7, [r1], #3086	; 0xc0e
  100d2c:	34b17c0e 	ldrtcc	r7, [r1], #3086	; 0xc0e
  100d30:	34c17c0e 	strbcc	r7, [r1], #3086	; 0xc0e
  100d34:	34d17c0e 	ldrbcc	r7, [r1], #3086	; 0xc0e
  100d38:	34e17c0e 	strbtcc	r7, [r1], #3086	; 0xc0e
  100d3c:	34f17c0e 	ldrbtcc	r7, [r1], #3086	; 0xc0e
  100d40:	35017c0e 	strcc	r7, [r1, #-3086]	; 0xfffff3f2
  100d44:	35117c0e 	ldrcc	r7, [r1, #-3086]	; 0xfffff3f2
  100d48:	35217c0e 	strcc	r7, [r1, #-3086]!	; 0xfffff3f2
  100d4c:	35317c0e 	ldrcc	r7, [r1, #-3086]!	; 0xfffff3f2
  100d50:	35417c0e 	strbcc	r7, [r1, #-3086]	; 0xfffff3f2
  100d54:	35517c0e 	ldrbcc	r7, [r1, #-3086]	; 0xfffff3f2
  100d58:	35617c0e 	strbcc	r7, [r1, #-3086]!	; 0xfffff3f2
  100d5c:	35717c0e 	ldrbcc	r7, [r1, #-3086]!	; 0xfffff3f2
  100d60:	35817c0e 	strcc	r7, [r1, #3086]	; 0xc0e
  100d64:	35917c0e 	ldrcc	r7, [r1, #3086]	; 0xc0e
  100d68:	35a17c0e 	strcc	r7, [r1, #3086]!	; 0xc0e
  100d6c:	35b17c0e 	ldrcc	r7, [r1, #3086]!	; 0xc0e
  100d70:	35c17c0e 	strbcc	r7, [r1, #3086]	; 0xc0e
  100d74:	35d17c0e 	ldrbcc	r7, [r1, #3086]	; 0xc0e
  100d78:	35e17c0e 	strbcc	r7, [r1, #3086]!	; 0xc0e
  100d7c:	35f17c0e 	ldrbcc	r7, [r1, #3086]!	; 0xc0e
  100d80:	36017c0e 	strcc	r7, [r1], -lr, lsl #24
  100d84:	36117c0e 	ldrcc	r7, [r1], -lr, lsl #24
  100d88:	36217c0e 	strtcc	r7, [r1], -lr, lsl #24
  100d8c:	36317c0e 	ldrtcc	r7, [r1], -lr, lsl #24
  100d90:	36417c0e 	strbcc	r7, [r1], -lr, lsl #24
  100d94:	36517c0e 	ldrbcc	r7, [r1], -lr, lsl #24
  100d98:	36617c0e 	strbtcc	r7, [r1], -lr, lsl #24
  100d9c:	36717c0e 	ldrbtcc	r7, [r1], -lr, lsl #24
  100da0:	36817c0e 	strcc	r7, [r1], lr, lsl #24
  100da4:	36917c0e 	ldrcc	r7, [r1], lr, lsl #24
  100da8:	36a17c0e 	strtcc	r7, [r1], lr, lsl #24
  100dac:	36b17c0e 	ldrtcc	r7, [r1], lr, lsl #24
  100db0:	36c17c0e 	strbcc	r7, [r1], lr, lsl #24
  100db4:	36d17c0e 	ldrbcc	r7, [r1], lr, lsl #24
  100db8:	36e17c0e 	strbtcc	r7, [r1], lr, lsl #24
  100dbc:	36f17c0e 	ldrbtcc	r7, [r1], lr, lsl #24
  100dc0:	37017c0e 	strcc	r7, [r1, -lr, lsl #24]
  100dc4:	37117c0e 	ldrcc	r7, [r1, -lr, lsl #24]
  100dc8:	37217c0e 	strcc	r7, [r1, -lr, lsl #24]!
  100dcc:	37317c0e 	ldrcc	r7, [r1, -lr, lsl #24]!
  100dd0:	37417c0e 	strbcc	r7, [r1, -lr, lsl #24]
  100dd4:	37517c0e 	ldrbcc	r7, [r1, -lr, lsl #24]
  100dd8:	37617c0e 	strbcc	r7, [r1, -lr, lsl #24]!
  100ddc:	37717c0e 	ldrbcc	r7, [r1, -lr, lsl #24]!
  100de0:	37817c0e 	strcc	r7, [r1, lr, lsl #24]
  100de4:	37917c0e 	ldrcc	r7, [r1, lr, lsl #24]
  100de8:	37a17c0e 	strcc	r7, [r1, lr, lsl #24]!
  100dec:	37b17c0e 	ldrcc	r7, [r1, lr, lsl #24]!
  100df0:	37c17c0e 	strbcc	r7, [r1, lr, lsl #24]
  100df4:	37d17c0e 	ldrbcc	r7, [r1, lr, lsl #24]
  100df8:	37e17c0e 	strbcc	r7, [r1, lr, lsl #24]!
  100dfc:	37f17c0e 	ldrbcc	r7, [r1, lr, lsl #24]!
  100e00:	38017c0e 	stmdacc	r1, {r1, r2, r3, sl, fp, ip, sp, lr}
  100e04:	38117c0e 	ldmdacc	r1, {r1, r2, r3, sl, fp, ip, sp, lr}
  100e08:	38217c0e 	stmdacc	r1!, {r1, r2, r3, sl, fp, ip, sp, lr}
  100e0c:	38317c0e 	ldmdacc	r1!, {r1, r2, r3, sl, fp, ip, sp, lr}
  100e10:	38417c0e 	stmdacc	r1, {r1, r2, r3, sl, fp, ip, sp, lr}^
  100e14:	38517c0e 	ldmdacc	r1, {r1, r2, r3, sl, fp, ip, sp, lr}^
  100e18:	38617c0e 	stmdacc	r1!, {r1, r2, r3, sl, fp, ip, sp, lr}^
  100e1c:	38717c0e 	ldmdacc	r1!, {r1, r2, r3, sl, fp, ip, sp, lr}^
  100e20:	38817c0e 	stmcc	r1, {r1, r2, r3, sl, fp, ip, sp, lr}
  100e24:	38917c0e 	ldmcc	r1, {r1, r2, r3, sl, fp, ip, sp, lr}
  100e28:	38a17c0e 	stmiacc	r1!, {r1, r2, r3, sl, fp, ip, sp, lr}
  100e2c:	38b17c0e 	ldmcc	r1!, {r1, r2, r3, sl, fp, ip, sp, lr}
  100e30:	38c17c0e 	stmiacc	r1, {r1, r2, r3, sl, fp, ip, sp, lr}^
  100e34:	38d17c0e 	ldmcc	r1, {r1, r2, r3, sl, fp, ip, sp, lr}^
  100e38:	38e17c0e 	stmiacc	r1!, {r1, r2, r3, sl, fp, ip, sp, lr}^
  100e3c:	38f17c0e 	ldmcc	r1!, {r1, r2, r3, sl, fp, ip, sp, lr}^
  100e40:	39017c0e 	stmdbcc	r1, {r1, r2, r3, sl, fp, ip, sp, lr}
  100e44:	39117c0e 	ldmdbcc	r1, {r1, r2, r3, sl, fp, ip, sp, lr}
  100e48:	39217c0e 	stmdbcc	r1!, {r1, r2, r3, sl, fp, ip, sp, lr}
  100e4c:	39317c0e 	ldmdbcc	r1!, {r1, r2, r3, sl, fp, ip, sp, lr}
  100e50:	39417c0e 	stmdbcc	r1, {r1, r2, r3, sl, fp, ip, sp, lr}^
  100e54:	39517c0e 	ldmdbcc	r1, {r1, r2, r3, sl, fp, ip, sp, lr}^
  100e58:	39617c0e 	stmdbcc	r1!, {r1, r2, r3, sl, fp, ip, sp, lr}^
  100e5c:	39717c0e 	ldmdbcc	r1!, {r1, r2, r3, sl, fp, ip, sp, lr}^
  100e60:	39817c0e 	stmibcc	r1, {r1, r2, r3, sl, fp, ip, sp, lr}
  100e64:	39917c0e 	ldmibcc	r1, {r1, r2, r3, sl, fp, ip, sp, lr}
  100e68:	39a17c0e 	stmibcc	r1!, {r1, r2, r3, sl, fp, ip, sp, lr}
  100e6c:	39b17c0e 	ldmibcc	r1!, {r1, r2, r3, sl, fp, ip, sp, lr}
  100e70:	39c17c0e 	stmibcc	r1, {r1, r2, r3, sl, fp, ip, sp, lr}^
  100e74:	39d17c0e 	ldmibcc	r1, {r1, r2, r3, sl, fp, ip, sp, lr}^
  100e78:	39e17c0e 	stmibcc	r1!, {r1, r2, r3, sl, fp, ip, sp, lr}^
  100e7c:	39f17c0e 	ldmibcc	r1!, {r1, r2, r3, sl, fp, ip, sp, lr}^
  100e80:	3a017c0e 	bcc	15fec0 <__cpu0_stack_end+0x2fb90>
  100e84:	3a117c0e 	bcc	55fec4 <__cpu0_stack_end+0x42fb94>
  100e88:	3a217c0e 	bcc	95fec8 <__cpu0_stack_end+0x82fb98>
  100e8c:	3a317c0e 	bcc	d5fecc <__cpu0_stack_end+0xc2fb9c>
  100e90:	3a417c0e 	bcc	115fed0 <__cpu0_stack_end+0x102fba0>
  100e94:	3a517c0e 	bcc	155fed4 <__cpu0_stack_end+0x142fba4>
  100e98:	3a617c0e 	bcc	195fed8 <__cpu0_stack_end+0x182fba8>
  100e9c:	3a717c0e 	bcc	1d5fedc <__cpu0_stack_end+0x1c2fbac>
  100ea0:	3a817c0e 	bcc	fe15fee0 <__heap_end+0xbe25fee0>
  100ea4:	3a917c0e 	bcc	fe55fee4 <__heap_end+0xbe65fee4>
  100ea8:	3aa17c0e 	bcc	fe95fee8 <__heap_end+0xbea5fee8>
  100eac:	3ab17c0e 	bcc	fed5feec <__heap_end+0xbee5feec>
  100eb0:	3ac17c0e 	bcc	ff15fef0 <__heap_end+0xbf25fef0>
  100eb4:	3ad17c0e 	bcc	ff55fef4 <__heap_end+0xbf65fef4>
  100eb8:	3ae17c0e 	bcc	ff95fef8 <__heap_end+0xbfa5fef8>
  100ebc:	3af17c0e 	bcc	ffd5fefc <__heap_end+0xbfe5fefc>
  100ec0:	3b017c0e 	blcc	15ff00 <__cpu0_stack_end+0x2fbd0>
  100ec4:	3b117c0e 	blcc	55ff04 <__cpu0_stack_end+0x42fbd4>
  100ec8:	3b217c0e 	blcc	95ff08 <__cpu0_stack_end+0x82fbd8>
  100ecc:	3b317c0e 	blcc	d5ff0c <__cpu0_stack_end+0xc2fbdc>
  100ed0:	3b417c0e 	blcc	115ff10 <__cpu0_stack_end+0x102fbe0>
  100ed4:	3b517c0e 	blcc	155ff14 <__cpu0_stack_end+0x142fbe4>
  100ed8:	3b617c0e 	blcc	195ff18 <__cpu0_stack_end+0x182fbe8>
  100edc:	3b717c0e 	blcc	1d5ff1c <__cpu0_stack_end+0x1c2fbec>
  100ee0:	3b817c0e 	blcc	fe15ff20 <__heap_end+0xbe25ff20>
  100ee4:	3b917c0e 	blcc	fe55ff24 <__heap_end+0xbe65ff24>
  100ee8:	3ba17c0e 	blcc	fe95ff28 <__heap_end+0xbea5ff28>
  100eec:	3bb17c0e 	blcc	fed5ff2c <__heap_end+0xbee5ff2c>
  100ef0:	3bc17c0e 	blcc	ff15ff30 <__heap_end+0xbf25ff30>
  100ef4:	3bd17c0e 	blcc	ff55ff34 <__heap_end+0xbf65ff34>
  100ef8:	3be17c0e 	blcc	ff95ff38 <__heap_end+0xbfa5ff38>
  100efc:	3bf17c0e 	blcc	ffd5ff3c <__heap_end+0xbfe5ff3c>
  100f00:	3c017c0e 	stccc	12, cr7, [r1], {14}
  100f04:	3c117c0e 	ldccc	12, cr7, [r1], {14}
  100f08:	3c217c0e 	stccc	12, cr7, [r1], #-56	; 0xffffffc8
  100f0c:	3c317c0e 	ldccc	12, cr7, [r1], #-56	; 0xffffffc8
  100f10:	3c417c0e 	mcrrcc	12, 0, r7, r1, cr14
  100f14:	3c517c0e 	mrrccc	12, 0, r7, r1, cr14
  100f18:	3c617c0e 	stclcc	12, cr7, [r1], #-56	; 0xffffffc8
  100f1c:	3c717c0e 	ldclcc	12, cr7, [r1], #-56	; 0xffffffc8
  100f20:	3c817c0e 	stccc	12, cr7, [r1], {14}
  100f24:	3c917c0e 	ldccc	12, cr7, [r1], {14}
  100f28:	3ca17c0e 	stccc	12, cr7, [r1], #56	; 0x38
  100f2c:	3cb17c0e 	ldccc	12, cr7, [r1], #56	; 0x38
  100f30:	3cc17c0e 	stclcc	12, cr7, [r1], {14}
  100f34:	3cd17c0e 	ldclcc	12, cr7, [r1], {14}
  100f38:	3ce17c0e 	stclcc	12, cr7, [r1], #56	; 0x38
  100f3c:	3cf17c0e 	ldclcc	12, cr7, [r1], #56	; 0x38
  100f40:	3d017c0e 	stccc	12, cr7, [r1, #-56]	; 0xffffffc8
  100f44:	3d117c0e 	ldccc	12, cr7, [r1, #-56]	; 0xffffffc8
  100f48:	3d217c0e 	stccc	12, cr7, [r1, #-56]!	; 0xffffffc8
  100f4c:	3d317c0e 	ldccc	12, cr7, [r1, #-56]!	; 0xffffffc8
  100f50:	3d417c0e 	stclcc	12, cr7, [r1, #-56]	; 0xffffffc8
  100f54:	3d517c0e 	ldclcc	12, cr7, [r1, #-56]	; 0xffffffc8
  100f58:	3d617c0e 	stclcc	12, cr7, [r1, #-56]!	; 0xffffffc8
  100f5c:	3d717c0e 	ldclcc	12, cr7, [r1, #-56]!	; 0xffffffc8
  100f60:	3d817c0e 	stccc	12, cr7, [r1, #56]	; 0x38
  100f64:	3d917c0e 	ldccc	12, cr7, [r1, #56]	; 0x38
  100f68:	3da17c0e 	stccc	12, cr7, [r1, #56]!	; 0x38
  100f6c:	3db17c0e 	ldccc	12, cr7, [r1, #56]!	; 0x38
  100f70:	3dc17c0e 	stclcc	12, cr7, [r1, #56]	; 0x38
  100f74:	3dd17c0e 	ldclcc	12, cr7, [r1, #56]	; 0x38
  100f78:	3de17c0e 	stclcc	12, cr7, [r1, #56]!	; 0x38
  100f7c:	3df17c0e 	ldclcc	12, cr7, [r1, #56]!	; 0x38
  100f80:	3e017c0e 	cdpcc	12, 0, cr7, cr1, cr14, {0}
  100f84:	3e117c0e 	cdpcc	12, 1, cr7, cr1, cr14, {0}
  100f88:	3e217c0e 	cdpcc	12, 2, cr7, cr1, cr14, {0}
  100f8c:	3e317c0e 	cdpcc	12, 3, cr7, cr1, cr14, {0}
  100f90:	3e417c0e 	cdpcc	12, 4, cr7, cr1, cr14, {0}
  100f94:	3e517c0e 	cdpcc	12, 5, cr7, cr1, cr14, {0}
  100f98:	3e617c0e 	cdpcc	12, 6, cr7, cr1, cr14, {0}
  100f9c:	3e717c0e 	cdpcc	12, 7, cr7, cr1, cr14, {0}
  100fa0:	3e817c0e 	cdpcc	12, 8, cr7, cr1, cr14, {0}
  100fa4:	3e917c0e 	cdpcc	12, 9, cr7, cr1, cr14, {0}
  100fa8:	3ea17c0e 	cdpcc	12, 10, cr7, cr1, cr14, {0}
  100fac:	3eb17c0e 	cdpcc	12, 11, cr7, cr1, cr14, {0}
  100fb0:	3ec17c0e 	cdpcc	12, 12, cr7, cr1, cr14, {0}
  100fb4:	3ed17c0e 	cdpcc	12, 13, cr7, cr1, cr14, {0}
  100fb8:	3ee17c0e 	cdpcc	12, 14, cr7, cr1, cr14, {0}
  100fbc:	3ef17c0e 	cdpcc	12, 15, cr7, cr1, cr14, {0}
  100fc0:	3f017c0e 	svccc	0x00017c0e
  100fc4:	3f117c0e 	svccc	0x00117c0e
  100fc8:	3f217c0e 	svccc	0x00217c0e
  100fcc:	3f317c0e 	svccc	0x00317c0e
  100fd0:	3f417c0e 	svccc	0x00417c0e
  100fd4:	3f517c0e 	svccc	0x00517c0e
  100fd8:	3f617c0e 	svccc	0x00617c0e
  100fdc:	3f717c0e 	svccc	0x00717c0e
  100fe0:	3f817c0e 	svccc	0x00817c0e
  100fe4:	3f917c0e 	svccc	0x00917c0e
  100fe8:	3fa17c0e 	svccc	0x00a17c0e
  100fec:	3fb17c0e 	svccc	0x00b17c0e
  100ff0:	3fc17c0e 	svccc	0x00c17c0e
  100ff4:	3fd17c0e 	svccc	0x00d17c0e
  100ff8:	3fe17c0e 	svccc	0x00e17c0e
  100ffc:	3ff10c06 	svccc	0x00f10c06
	...
  103800:	e0010c16 	and	r0, r1, r6, lsl ip
  103804:	e0110c16 	ands	r0, r1, r6, lsl ip
  103808:	e0210c16 	eor	r0, r1, r6, lsl ip
	...
  103e00:	f8010c16 			; <UNDEFINED> instruction: 0xf8010c16
  103e04:	f8110c16 			; <UNDEFINED> instruction: 0xf8110c16
  103e08:	f8210c16 			; <UNDEFINED> instruction: 0xf8210c16
  103e0c:	f8310c16 			; <UNDEFINED> instruction: 0xf8310c16
  103e10:	f8410c16 			; <UNDEFINED> instruction: 0xf8410c16
  103e14:	f8510c16 			; <UNDEFINED> instruction: 0xf8510c16
  103e18:	f8610c16 			; <UNDEFINED> instruction: 0xf8610c16
  103e1c:	f8710c16 			; <UNDEFINED> instruction: 0xf8710c16
  103e20:	f8810c16 			; <UNDEFINED> instruction: 0xf8810c16
  103e24:	f8910c16 			; <UNDEFINED> instruction: 0xf8910c16
  103e28:	f8a10c16 			; <UNDEFINED> instruction: 0xf8a10c16
  103e2c:	f8b10c16 			; <UNDEFINED> instruction: 0xf8b10c16
  103e30:	f8c10c16 			; <UNDEFINED> instruction: 0xf8c10c16
  103e34:	f8d10c16 			; <UNDEFINED> instruction: 0xf8d10c16
  103e38:	f8e10c16 			; <UNDEFINED> instruction: 0xf8e10c16
  103e3c:	f8f10c16 			; <UNDEFINED> instruction: 0xf8f10c16
	...
  103fc0:	ff010c16 			; <UNDEFINED> instruction: 0xff010c16
  103fc4:	ff110c16 			; <UNDEFINED> instruction: 0xff110c16
  103fc8:	ff210c16 			; <UNDEFINED> instruction: 0xff210c16
  103fcc:	ff310c16 			; <UNDEFINED> instruction: 0xff310c16
  103fd0:	ff410c16 			; <UNDEFINED> instruction: 0xff410c16
  103fd4:	ff510c16 			; <UNDEFINED> instruction: 0xff510c16
  103fd8:	ff610c16 			; <UNDEFINED> instruction: 0xff610c16
  103fdc:	ff710c16 			; <UNDEFINED> instruction: 0xff710c16
  103fe0:	ff810c16 			; <UNDEFINED> instruction: 0xff810c16
  103fe4:	ff910c16 			; <UNDEFINED> instruction: 0xff910c16
  103fe8:	ffa10c16 			; <UNDEFINED> instruction: 0xffa10c16
  103fec:	ffb10c16 			; <UNDEFINED> instruction: 0xffb10c16
  103ff0:	ffc10c16 			; <UNDEFINED> instruction: 0xffc10c16
  103ff4:	ffd10c16 			; <UNDEFINED> instruction: 0xffd10c16
  103ff8:	ffe10c16 			; <UNDEFINED> instruction: 0xffe10c16
  103ffc:	fff10c16 			; <UNDEFINED> instruction: 0xfff10c16

00104000 <__traps>:
  104000:	ea000006 	b	104020 <__start_ram>
  104004:	ea0024c8 	b	10d32c <__gnat_undef_trap>

00104008 <__gnat_svc_trap>:
  104008:	eafffffe 	b	104008 <__gnat_svc_trap>

0010400c <__gnat_pabt_trap>:
  10400c:	eafffffe 	b	10400c <__gnat_pabt_trap>
  104010:	ea0024bc 	b	10d308 <__gnat_dabt_trap>
  104014:	e320f000 	nop	{0}
  104018:	ea00251a 	b	10d488 <__gnat_irq_trap>
  10401c:	ea00254b 	b	10d550 <__gnat_fiq_trap>

00104020 <__start_ram>:
  104020:	f1020013 	cps	#19
  104024:	e59fd174 	ldr	sp, [pc, #372]	; 1041a0 <svcSp0>
  104028:	f1020017 	cps	#23
  10402c:	e59fd170 	ldr	sp, [pc, #368]	; 1041a4 <abortSp0>
  104030:	f102001b 	cps	#27
  104034:	e59fd16c 	ldr	sp, [pc, #364]	; 1041a8 <undefSp0>
  104038:	f1020011 	cps	#17
  10403c:	e59fd168 	ldr	sp, [pc, #360]	; 1041ac <fiqSp0>
  104040:	f1020012 	cps	#18
  104044:	e59fd164 	ldr	sp, [pc, #356]	; 1041b0 <irqSp0>
  104048:	f102001f 	cps	#31
  10404c:	e59fd160 	ldr	sp, [pc, #352]	; 1041b4 <userSp0>
  104050:	e3000202 	movw	r0, #514	; 0x202
  104054:	e3400002 	movt	r0, #2
  104058:	e3001a1c 	movw	r1, #2588	; 0xa1c
  10405c:	e34f1800 	movt	r1, #63488	; 0xf800
  104060:	e5810000 	str	r0, [r1]
  104064:	e3a00007 	mov	r0, #7
  104068:	e3001000 	movw	r1, #0
  10406c:	e34f18f0 	movt	r1, #63728	; 0xf8f0
  104070:	e5810000 	str	r0, [r1]
  104074:	eb00000b 	bl	1040a8 <L_coreInit>
  104078:	e3030f30 	movw	r0, #16176	; 0x3f30
  10407c:	e3400011 	movt	r0, #17
  104080:	e3031d00 	movw	r1, #15616	; 0x3d00
  104084:	e3401000 	movt	r1, #0
  104088:	e3a02000 	mov	r2, #0
  10408c:	e3510000 	cmp	r1, #0
  104090:	0a000002 	beq	1040a0 <__start_ram+0x80>
  104094:	e4802004 	str	r2, [r0], #4
  104098:	e2511001 	subs	r1, r1, #1
  10409c:	1afffffc 	bne	104094 <__start_ram+0x74>
  1040a0:	eb00014c 	bl	1045d8 <main>
  1040a4:	eb001247 	bl	1089c8 <_exit>

001040a8 <L_coreInit>:
  1040a8:	ee110f50 	mrc	15, 0, r0, cr1, cr0, {2}
  1040ac:	e380060f 	orr	r0, r0, #15728640	; 0xf00000
  1040b0:	ee010f50 	mcr	15, 0, r0, cr1, cr0, {2}
  1040b4:	e3a00101 	mov	r0, #1073741824	; 0x40000000
  1040b8:	eee80a10 	vmsr	fpexc, r0
  1040bc:	e24f00c4 	sub	r0, pc, #196	; 0xc4
  1040c0:	ee0c0f10 	mcr	15, 0, r0, cr12, cr0, {0}
  1040c4:	e3a02000 	mov	r2, #0
  1040c8:	ee082f17 	mcr	15, 0, r2, cr8, cr7, {0}
  1040cc:	ee072f15 	mcr	15, 0, r2, cr7, cr5, {0}
  1040d0:	ee072fd5 	mcr	15, 0, r2, cr7, cr5, {6}
  1040d4:	ee300f30 	mrc	15, 1, r0, cr0, cr0, {1}
  1040d8:	e2103407 	ands	r3, r0, #117440512	; 0x7000000
  1040dc:	e1a03ba3 	lsr	r3, r3, #23
  1040e0:	0a00001a 	beq	104150 <L_coreInit+0xa8>
  1040e4:	e3a0a000 	mov	sl, #0
  1040e8:	e08a20aa 	add	r2, sl, sl, lsr #1
  1040ec:	e1a01230 	lsr	r1, r0, r2
  1040f0:	e2011007 	and	r1, r1, #7
  1040f4:	e3510002 	cmp	r1, #2
  1040f8:	ba000011 	blt	104144 <L_coreInit+0x9c>
  1040fc:	ee40af10 	mcr	15, 2, sl, cr0, cr0, {0}
  104100:	f57ff06f 	isb	sy
  104104:	ee301f10 	mrc	15, 1, r1, cr0, cr0, {0}
  104108:	e2012007 	and	r2, r1, #7
  10410c:	e2822004 	add	r2, r2, #4
  104110:	e59f410c 	ldr	r4, [pc, #268]	; 104224 <__kick_cpu1+0x14>
  104114:	e01441a1 	ands	r4, r4, r1, lsr #3
  104118:	e16f5f14 	clz	r5, r4
  10411c:	e59f7104 	ldr	r7, [pc, #260]	; 104228 <__kick_cpu1+0x18>
  104120:	e01776a1 	ands	r7, r7, r1, lsr #13
  104124:	e1a09004 	mov	r9, r4
  104128:	e18ab519 	orr	fp, sl, r9, lsl r5
  10412c:	e18bb217 	orr	fp, fp, r7, lsl r2
  104130:	ee07bf56 	mcr	15, 0, fp, cr7, cr6, {2}
  104134:	e2599001 	subs	r9, r9, #1
  104138:	aafffffa 	bge	104128 <L_coreInit+0x80>
  10413c:	e2577001 	subs	r7, r7, #1
  104140:	aafffff7 	bge	104124 <L_coreInit+0x7c>
  104144:	e28aa002 	add	sl, sl, #2
  104148:	e153000a 	cmp	r3, sl
  10414c:	caffffe5 	bgt	1040e8 <L_coreInit+0x40>
  104150:	ee111f30 	mrc	15, 0, r1, cr1, cr0, {1}
  104154:	e3811047 	orr	r1, r1, #71	; 0x47
  104158:	ee011f30 	mcr	15, 0, r1, cr1, cr0, {1}
  10415c:	e24f0064 	sub	r0, pc, #100	; 0x64
  104160:	e2400c41 	sub	r0, r0, #16640	; 0x4100
  104164:	e380005b 	orr	r0, r0, #91	; 0x5b
  104168:	ee020f10 	mcr	15, 0, r0, cr2, cr0, {0}
  10416c:	e3a01000 	mov	r1, #0
  104170:	ee021f50 	mcr	15, 0, r1, cr2, cr0, {2}
  104174:	ee0d1f30 	mcr	15, 0, r1, cr13, cr0, {1}
  104178:	e3a01001 	mov	r1, #1
  10417c:	ee031f10 	mcr	15, 0, r1, cr3, cr0, {0}
  104180:	ee111f10 	mrc	15, 0, r1, cr1, cr0, {0}
  104184:	e3012005 	movw	r2, #4101	; 0x1005
  104188:	e1811002 	orr	r1, r1, r2
  10418c:	e3c11203 	bic	r1, r1, #805306368	; 0x30000000
  104190:	ee011f10 	mcr	15, 0, r1, cr1, cr0, {0}
  104194:	f57ff04f 	dsb	sy
  104198:	f57ff06f 	isb	sy
  10419c:	e12fff1e 	bx	lr

001041a0 <svcSp0>:
  1041a0:	00123630 	andseq	r3, r2, r0, lsr r6

001041a4 <abortSp0>:
  1041a4:	00123430 	andseq	r3, r2, r0, lsr r4

001041a8 <undefSp0>:
  1041a8:	00123530 	andseq	r3, r2, r0, lsr r5

001041ac <fiqSp0>:
  1041ac:	00123730 	andseq	r3, r2, r0, lsr r7

001041b0 <irqSp0>:
  1041b0:	00125730 	andseq	r5, r2, r0, lsr r7

001041b4 <userSp0>:
  1041b4:	00130330 	andseq	r0, r3, r0, lsr r3

001041b8 <__start_cpu1>:
  1041b8:	f1020013 	cps	#19
  1041bc:	e59fd034 	ldr	sp, [pc, #52]	; 1041f8 <svcSp1>
  1041c0:	f1020017 	cps	#23
  1041c4:	e59fd030 	ldr	sp, [pc, #48]	; 1041fc <abortSp1>
  1041c8:	f102001b 	cps	#27
  1041cc:	e59fd02c 	ldr	sp, [pc, #44]	; 104200 <undefSp1>
  1041d0:	f1020011 	cps	#17
  1041d4:	e59fd028 	ldr	sp, [pc, #40]	; 104204 <fiqSp1>
  1041d8:	f1020012 	cps	#18
  1041dc:	e59fd024 	ldr	sp, [pc, #36]	; 104208 <irqSp1>
  1041e0:	f102001f 	cps	#31
  1041e4:	e59fd020 	ldr	sp, [pc, #32]	; 10420c <userSp1>
  1041e8:	ebffffae 	bl	1040a8 <L_coreInit>
  1041ec:	eb000ca0 	bl	107474 <__gnat_initialize_cpu_devices>
  1041f0:	e3a00002 	mov	r0, #2
  1041f4:	eb0028da 	bl	10e564 <__gnat_initialize_slave>

001041f8 <svcSp1>:
  1041f8:	00125a30 	andseq	r5, r2, r0, lsr sl

001041fc <abortSp1>:
  1041fc:	00125830 	andseq	r5, r2, r0, lsr r8

00104200 <undefSp1>:
  104200:	00125930 	andseq	r5, r2, r0, lsr r9

00104204 <fiqSp1>:
  104204:	00125b30 	andseq	r5, r2, r0, lsr fp

00104208 <irqSp1>:
  104208:	00126330 	andseq	r6, r2, r0, lsr r3

0010420c <userSp1>:
  10420c:	0012b330 	andseq	fp, r2, r0, lsr r3

00104210 <__kick_cpu1>:
  104210:	e3e0100f 	mvn	r1, #15
  104214:	e24f0064 	sub	r0, pc, #100	; 0x64
  104218:	e5810000 	str	r0, [r1]
  10421c:	e320f004 	sev
  104220:	e12fff1e 	bx	lr
  104224:	000003ff 	strdeq	r0, [r0], -pc	; <UNPREDICTABLE>
  104228:	00007fff 	strdeq	r7, [r0], -pc	; <UNPREDICTABLE>

0010422c <_ada_main>:
  10422c:	e92d4800 	push	{fp, lr}
  104230:	e28db004 	add	fp, sp, #4
  104234:	e24dd010 	sub	sp, sp, #16
  104238:	e3a00e7d 	mov	r0, #2000	; 0x7d0
  10423c:	eb000339 	bl	104f28 <ada__real_time__milliseconds>
  104240:	e1a02000 	mov	r2, r0
  104244:	e1a03001 	mov	r3, r1
  104248:	e14b21f4 	strd	r2, [fp, #-20]	; 0xffffffec
  10424c:	eb00031b 	bl	104ec0 <ada__real_time__clock>
  104250:	e14b21d4 	ldrd	r2, [fp, #-20]	; 0xffffffec
  104254:	eb000251 	bl	104ba0 <ada__real_time__Oadd>
  104258:	e1a02000 	mov	r2, r0
  10425c:	e1a03001 	mov	r3, r1
  104260:	e14b20fc 	strd	r2, [fp, #-12]
  104264:	e14b00dc 	ldrd	r0, [fp, #-12]
  104268:	eb000477 	bl	10544c <ada__real_time__delays__delay_until>
  10426c:	e14b21d4 	ldrd	r2, [fp, #-20]	; 0xffffffec
  104270:	e14b00dc 	ldrd	r0, [fp, #-12]
  104274:	eb000249 	bl	104ba0 <ada__real_time__Oadd>
  104278:	e1a02000 	mov	r2, r0
  10427c:	e1a03001 	mov	r3, r1
  104280:	e14b20fc 	strd	r2, [fp, #-12]
  104284:	eafffff6 	b	104264 <_ada_main+0x38>

00104288 <ada_main__Tsec_default_sized_stacksBIP>:
  104288:	e92d4870 	push	{r4, r5, r6, fp, lr}
  10428c:	e28db010 	add	fp, sp, #16
  104290:	e24dd00c 	sub	sp, sp, #12
  104294:	e14b01fc 	strd	r0, [fp, #-28]	; 0xffffffe4
  104298:	e51b3018 	ldr	r3, [fp, #-24]	; 0xffffffe8
  10429c:	e5933000 	ldr	r3, [r3]
  1042a0:	e1a06003 	mov	r6, r3
  1042a4:	e51b3018 	ldr	r3, [fp, #-24]	; 0xffffffe8
  1042a8:	e5934000 	ldr	r4, [r3]
  1042ac:	e51b3018 	ldr	r3, [fp, #-24]	; 0xffffffe8
  1042b0:	e5935004 	ldr	r5, [r3, #4]
  1042b4:	e1540005 	cmp	r4, r5
  1042b8:	ca00000e 	bgt	1042f8 <ada_main__Tsec_default_sized_stacksBIP+0x70>
  1042bc:	e51b101c 	ldr	r1, [fp, #-28]	; 0xffffffe4
  1042c0:	e1a03004 	mov	r3, r4
  1042c4:	e0432006 	sub	r2, r3, r6
  1042c8:	e1a03002 	mov	r3, r2
  1042cc:	e1a03403 	lsl	r3, r3, #8
  1042d0:	e0833002 	add	r3, r3, r2
  1042d4:	e1a03203 	lsl	r3, r3, #4
  1042d8:	e0813003 	add	r3, r1, r3
  1042dc:	e3a01a01 	mov	r1, #4096	; 0x1000
  1042e0:	e1a00003 	mov	r0, r3
  1042e4:	eb00121b 	bl	108b58 <system__secondary_stack__ss_stackIP>
  1042e8:	e1540005 	cmp	r4, r5
  1042ec:	0a000001 	beq	1042f8 <ada_main__Tsec_default_sized_stacksBIP+0x70>
  1042f0:	e2844001 	add	r4, r4, #1
  1042f4:	eafffff0 	b	1042bc <ada_main__Tsec_default_sized_stacksBIP+0x34>
  1042f8:	e24bd010 	sub	sp, fp, #16
  1042fc:	e8bd8870 	pop	{r4, r5, r6, fp, pc}

00104300 <adafinal>:
  104300:	e92d4800 	push	{fp, lr}
  104304:	e28db004 	add	fp, sp, #4
  104308:	e30334e2 	movw	r3, #13538	; 0x34e2
  10430c:	e3403011 	movt	r3, #17
  104310:	e5d33000 	ldrb	r3, [r3]
  104314:	e2233001 	eor	r3, r3, #1
  104318:	e6ef3073 	uxtb	r3, r3
  10431c:	e3530000 	cmp	r3, #0
  104320:	1a000006 	bne	104340 <adafinal+0x40>
  104324:	e30334e2 	movw	r3, #13538	; 0x34e2
  104328:	e3403011 	movt	r3, #17
  10432c:	e3a02000 	mov	r2, #0
  104330:	e5c32000 	strb	r2, [r3]
  104334:	eb0011a2 	bl	1089c4 <__gnat_runtime_finalize>
  104338:	eb0012f2 	bl	108f08 <system__standard_library__adafinal>
  10433c:	ea000000 	b	104344 <adafinal+0x44>
  104340:	e320f000 	nop	{0}
  104344:	e8bd8800 	pop	{fp, pc}

00104348 <adainit>:
  104348:	e92d4800 	push	{fp, lr}
  10434c:	e28db004 	add	fp, sp, #4
  104350:	e30334e2 	movw	r3, #13538	; 0x34e2
  104354:	e3403011 	movt	r3, #17
  104358:	e5d33000 	ldrb	r3, [r3]
  10435c:	e3530000 	cmp	r3, #0
  104360:	1a00009a 	bne	1045d0 <adainit+0x288>
  104364:	e30334e2 	movw	r3, #13538	; 0x34e2
  104368:	e3403011 	movt	r3, #17
  10436c:	e3a02001 	mov	r2, #1
  104370:	e5c32000 	strb	r2, [r3]
  104374:	e3033690 	movw	r3, #13968	; 0x3690
  104378:	e3403011 	movt	r3, #17
  10437c:	e3e02000 	mvn	r2, #0
  104380:	e5832000 	str	r2, [r3]
  104384:	e30335ac 	movw	r3, #13740	; 0x35ac
  104388:	e3403011 	movt	r3, #17
  10438c:	e3a02000 	mov	r2, #0
  104390:	e5832000 	str	r2, [r3]
  104394:	e30335b4 	movw	r3, #13748	; 0x35b4
  104398:	e3403011 	movt	r3, #17
  10439c:	e3a02062 	mov	r2, #98	; 0x62
  1043a0:	e5c32000 	strb	r2, [r3]
  1043a4:	e3033590 	movw	r3, #13712	; 0x3590
  1043a8:	e3403011 	movt	r3, #17
  1043ac:	e3a02043 	mov	r2, #67	; 0x43
  1043b0:	e5c32000 	strb	r2, [r3]
  1043b4:	e30335a0 	movw	r3, #13728	; 0x35a0
  1043b8:	e3403011 	movt	r3, #17
  1043bc:	e3a02020 	mov	r2, #32
  1043c0:	e5c32000 	strb	r2, [r3]
  1043c4:	e30335a8 	movw	r3, #13736	; 0x35a8
  1043c8:	e3403011 	movt	r3, #17
  1043cc:	e3a02046 	mov	r2, #70	; 0x46
  1043d0:	e5c32000 	strb	r2, [r3]
  1043d4:	e303359c 	movw	r3, #13724	; 0x359c
  1043d8:	e3403011 	movt	r3, #17
  1043dc:	e30123f8 	movw	r2, #5112	; 0x13f8
  1043e0:	e3402011 	movt	r2, #17
  1043e4:	e5832000 	str	r2, [r3]
  1043e8:	e3033598 	movw	r3, #13720	; 0x3598
  1043ec:	e3403011 	movt	r3, #17
  1043f0:	e3a02000 	mov	r2, #0
  1043f4:	e5832000 	str	r2, [r3]
  1043f8:	e303368c 	movw	r3, #13964	; 0x368c
  1043fc:	e3403011 	movt	r3, #17
  104400:	e3e02000 	mvn	r2, #0
  104404:	e5832000 	str	r2, [r3]
  104408:	e3033588 	movw	r3, #13704	; 0x3588
  10440c:	e3403011 	movt	r3, #17
  104410:	e30123fc 	movw	r2, #5116	; 0x13fc
  104414:	e3402011 	movt	r2, #17
  104418:	e5832000 	str	r2, [r3]
  10441c:	e3033594 	movw	r3, #13716	; 0x3594
  104420:	e3403011 	movt	r3, #17
  104424:	e3a02000 	mov	r2, #0
  104428:	e5832000 	str	r2, [r3]
  10442c:	e30335b0 	movw	r3, #13744	; 0x35b0
  104430:	e3403011 	movt	r3, #17
  104434:	e3a02000 	mov	r2, #0
  104438:	e5832000 	str	r2, [r3]
  10443c:	e303357c 	movw	r3, #13692	; 0x357c
  104440:	e3403011 	movt	r3, #17
  104444:	e3a02001 	mov	r2, #1
  104448:	e5832000 	str	r2, [r3]
  10444c:	e3033578 	movw	r3, #13688	; 0x3578
  104450:	e3403011 	movt	r3, #17
  104454:	e3e02000 	mvn	r2, #0
  104458:	e5832000 	str	r2, [r3]
  10445c:	e303358c 	movw	r3, #13708	; 0x358c
  104460:	e3403011 	movt	r3, #17
  104464:	e3a02000 	mov	r2, #0
  104468:	e5832000 	str	r2, [r3]
  10446c:	eb000068 	bl	104614 <ada_main___elabb>
  104470:	e3013880 	movw	r3, #6272	; 0x1880
  104474:	e3403012 	movt	r3, #18
  104478:	e3a02a01 	mov	r2, #4096	; 0x1000
  10447c:	e5832000 	str	r2, [r3]
  104480:	e3013878 	movw	r3, #6264	; 0x1878
  104484:	e3403012 	movt	r3, #18
  104488:	e3a02003 	mov	r2, #3
  10448c:	e5832000 	str	r2, [r3]
  104490:	e3032f30 	movw	r2, #16176	; 0x3f30
  104494:	e3402011 	movt	r2, #17
  104498:	e301387c 	movw	r3, #6268	; 0x187c
  10449c:	e3403012 	movt	r3, #18
  1044a0:	e5832000 	str	r2, [r3]
  1044a4:	e3a00001 	mov	r0, #1
  1044a8:	eb001141 	bl	1089b4 <__gnat_runtime_initialize>
  1044ac:	eb000ef4 	bl	108084 <system__bb__timing_events___elabs>
  1044b0:	e3033540 	movw	r3, #13632	; 0x3540
  1044b4:	e3403011 	movt	r3, #17
  1044b8:	e1d330b0 	ldrh	r3, [r3]
  1044bc:	e6bf3073 	sxth	r3, r3
  1044c0:	e2833001 	add	r3, r3, #1
  1044c4:	e6bf2073 	sxth	r2, r3
  1044c8:	e3033540 	movw	r3, #13632	; 0x3540
  1044cc:	e3403011 	movt	r3, #17
  1044d0:	e1c320b0 	strh	r2, [r3]
  1044d4:	eb00127d 	bl	108ed0 <system__soft_links___elabs>
  1044d8:	eb000935 	bl	1069b4 <ada__tags___elabb>
  1044dc:	e30334f8 	movw	r3, #13560	; 0x34f8
  1044e0:	e3403011 	movt	r3, #17
  1044e4:	e1d330b0 	ldrh	r3, [r3]
  1044e8:	e6bf3073 	sxth	r3, r3
  1044ec:	e2833001 	add	r3, r3, #1
  1044f0:	e6bf2073 	sxth	r2, r3
  1044f4:	e30334f8 	movw	r3, #13560	; 0x34f8
  1044f8:	e3403011 	movt	r3, #17
  1044fc:	e1c320b0 	strh	r2, [r3]
  104500:	eb0010f6 	bl	1088e0 <system__exception_table___elabb>
  104504:	e3033570 	movw	r3, #13680	; 0x3570
  104508:	e3403011 	movt	r3, #17
  10450c:	e1d330b0 	ldrh	r3, [r3]
  104510:	e6bf3073 	sxth	r3, r3
  104514:	e2833001 	add	r3, r3, #1
  104518:	e6bf2073 	sxth	r2, r3
  10451c:	e3033570 	movw	r3, #13680	; 0x3570
  104520:	e3403011 	movt	r3, #17
  104524:	e1c320b0 	strh	r2, [r3]
  104528:	e30335c0 	movw	r3, #13760	; 0x35c0
  10452c:	e3403011 	movt	r3, #17
  104530:	e1d330b0 	ldrh	r3, [r3]
  104534:	e6bf3073 	sxth	r3, r3
  104538:	e2833001 	add	r3, r3, #1
  10453c:	e6bf2073 	sxth	r2, r3
  104540:	e30335c0 	movw	r3, #13760	; 0x35c0
  104544:	e3403011 	movt	r3, #17
  104548:	e1c320b0 	strh	r2, [r3]
  10454c:	eb0003bd 	bl	105448 <ada__real_time___elabb>
  104550:	e30334f4 	movw	r3, #13556	; 0x34f4
  104554:	e3403011 	movt	r3, #17
  104558:	e1d330b0 	ldrh	r3, [r3]
  10455c:	e6bf3073 	sxth	r3, r3
  104560:	e2833001 	add	r3, r3, #1
  104564:	e6bf2073 	sxth	r2, r3
  104568:	e30334f4 	movw	r3, #13556	; 0x34f4
  10456c:	e3403011 	movt	r3, #17
  104570:	e1c320b0 	strh	r2, [r3]
  104574:	eb001388 	bl	10939c <system__tasking__restricted__stages___elabb>
  104578:	e303367a 	movw	r3, #13946	; 0x367a
  10457c:	e3403011 	movt	r3, #17
  104580:	e1d330b0 	ldrh	r3, [r3]
  104584:	e6bf3073 	sxth	r3, r3
  104588:	e2833001 	add	r3, r3, #1
  10458c:	e6bf2073 	sxth	r2, r3
  104590:	e303367a 	movw	r3, #13946	; 0x367a
  104594:	e3403011 	movt	r3, #17
  104598:	e1c320b0 	strh	r2, [r3]
  10459c:	eb000116 	bl	1049fc <two_tasks___elabs>
  1045a0:	eb000107 	bl	1049c4 <two_tasks___elabb>
  1045a4:	e30334e4 	movw	r3, #13540	; 0x34e4
  1045a8:	e3403011 	movt	r3, #17
  1045ac:	e1d330b0 	ldrh	r3, [r3]
  1045b0:	e6bf3073 	sxth	r3, r3
  1045b4:	e2833001 	add	r3, r3, #1
  1045b8:	e6bf2073 	sxth	r2, r3
  1045bc:	e30334e4 	movw	r3, #13540	; 0x34e4
  1045c0:	e3403011 	movt	r3, #17
  1045c4:	e1c320b0 	strh	r2, [r3]
  1045c8:	eb000f3b 	bl	1082bc <__gnat_start_slave_cpus>
  1045cc:	ea000000 	b	1045d4 <adainit+0x28c>
  1045d0:	e320f000 	nop	{0}
  1045d4:	e8bd8800 	pop	{fp, pc}

001045d8 <main>:
  1045d8:	e92d4800 	push	{fp, lr}
  1045dc:	e28db004 	add	fp, sp, #4
  1045e0:	e24dd010 	sub	sp, sp, #16
  1045e4:	e30133ec 	movw	r3, #5100	; 0x13ec
  1045e8:	e3403011 	movt	r3, #17
  1045ec:	e50b3010 	str	r3, [fp, #-16]
  1045f0:	e24b300c 	sub	r3, fp, #12
  1045f4:	e1a00003 	mov	r0, r3
  1045f8:	eb0010eb 	bl	1089ac <__gnat_initialize>
  1045fc:	ebffff51 	bl	104348 <adainit>
  104600:	ebffff09 	bl	10422c <_ada_main>
  104604:	ebffff3d 	bl	104300 <adafinal>
  104608:	eb0010e6 	bl	1089a8 <__gnat_finalize>
  10460c:	e24bd004 	sub	sp, fp, #4
  104610:	e8bd8800 	pop	{fp, pc}

00104614 <ada_main___elabb>:
  104614:	e92d4800 	push	{fp, lr}
  104618:	e28db004 	add	fp, sp, #4
  10461c:	e3032f30 	movw	r2, #16176	; 0x3f30
  104620:	e3402011 	movt	r2, #17
  104624:	e30133b8 	movw	r3, #5048	; 0x13b8
  104628:	e3403011 	movt	r3, #17
  10462c:	e1a00002 	mov	r0, r2
  104630:	e1a01003 	mov	r1, r3
  104634:	ebffff13 	bl	104288 <ada_main__Tsec_default_sized_stacksBIP>
  104638:	e8bd8800 	pop	{fp, pc}

0010463c <two_tasks__aTKVIP>:
  10463c:	e24dd008 	sub	sp, sp, #8
  104640:	e92d4830 	push	{r4, r5, fp, lr}
  104644:	e28db00c 	add	fp, sp, #12
  104648:	e24dd040 	sub	sp, sp, #64	; 0x40
  10464c:	e50b0010 	str	r0, [fp, #-16]
  104650:	e50b1014 	str	r1, [fp, #-20]	; 0xffffffec
  104654:	e50b2018 	str	r2, [fp, #-24]	; 0xffffffe8
  104658:	e58b3008 	str	r3, [fp, #8]
  10465c:	e24b3024 	sub	r3, fp, #36	; 0x24
  104660:	e28b2008 	add	r2, fp, #8
  104664:	e8920003 	ldm	r2, {r0, r1}
  104668:	e8830003 	stm	r3, {r0, r1}
  10466c:	e51b3010 	ldr	r3, [fp, #-16]
  104670:	e3a02000 	mov	r2, #0
  104674:	e5832000 	str	r2, [r3]
  104678:	e51b3010 	ldr	r3, [fp, #-16]
  10467c:	e2833a05 	add	r3, r3, #20480	; 0x5000
  104680:	e3a02001 	mov	r2, #1
  104684:	e5c322f0 	strb	r2, [r3, #752]	; 0x2f0
  104688:	e51b3010 	ldr	r3, [fp, #-16]
  10468c:	e2832008 	add	r2, r3, #8
  104690:	e51b3010 	ldr	r3, [fp, #-16]
  104694:	e5832000 	str	r2, [r3]
  104698:	e51b3010 	ldr	r3, [fp, #-16]
  10469c:	e2833e2f 	add	r3, r3, #752	; 0x2f0
  1046a0:	e1a05003 	mov	r5, r3
  1046a4:	e30334e8 	movw	r3, #13544	; 0x34e8
  1046a8:	e3403011 	movt	r3, #17
  1046ac:	e593e000 	ldr	lr, [r3]
  1046b0:	e51b3010 	ldr	r3, [fp, #-16]
  1046b4:	e2833a05 	add	r3, r3, #20480	; 0x5000
  1046b8:	e2833e2f 	add	r3, r3, #752	; 0x2f0
  1046bc:	e1d330d0 	ldrsb	r3, [r3]
  1046c0:	e1a04003 	mov	r4, r3
  1046c4:	e51b2010 	ldr	r2, [fp, #-16]
  1046c8:	e51b3010 	ldr	r3, [fp, #-16]
  1046cc:	e5933000 	ldr	r3, [r3]
  1046d0:	e58d3024 	str	r3, [sp, #36]	; 0x24
  1046d4:	e28dc01c 	add	ip, sp, #28
  1046d8:	e24b3024 	sub	r3, fp, #36	; 0x24
  1046dc:	e8930003 	ldm	r3, {r0, r1}
  1046e0:	e88c0003 	stm	ip, {r0, r1}
  1046e4:	e51b3018 	ldr	r3, [fp, #-24]	; 0xffffffe8
  1046e8:	e58d3018 	str	r3, [sp, #24]
  1046ec:	e30334e6 	movw	r3, #13542	; 0x34e6
  1046f0:	e3403011 	movt	r3, #17
  1046f4:	e58d3014 	str	r3, [sp, #20]
  1046f8:	e58d2010 	str	r2, [sp, #16]
  1046fc:	e3043860 	movw	r3, #18528	; 0x4860
  104700:	e3403010 	movt	r3, #16
  104704:	e58d300c 	str	r3, [sp, #12]
  104708:	e58d4008 	str	r4, [sp, #8]
  10470c:	e3a03002 	mov	r3, #2
  104710:	e58d3004 	str	r3, [sp, #4]
  104714:	e3a03102 	mov	r3, #-2147483648	; 0x80000000
  104718:	e58d3000 	str	r3, [sp]
  10471c:	e3a03000 	mov	r3, #0
  104720:	e1a0200e 	mov	r2, lr
  104724:	e1a01005 	mov	r1, r5
  104728:	e3e00000 	mvn	r0, #0
  10472c:	eb0012d9 	bl	109298 <system__tasking__restricted__stages__create_restricted_task>
  104730:	e24bd00c 	sub	sp, fp, #12
  104734:	e8bd4830 	pop	{r4, r5, fp, lr}
  104738:	e28dd008 	add	sp, sp, #8
  10473c:	e12fff1e 	bx	lr

00104740 <two_tasks__bTKVIP>:
  104740:	e24dd008 	sub	sp, sp, #8
  104744:	e92d4830 	push	{r4, r5, fp, lr}
  104748:	e28db00c 	add	fp, sp, #12
  10474c:	e24dd040 	sub	sp, sp, #64	; 0x40
  104750:	e50b0010 	str	r0, [fp, #-16]
  104754:	e50b1014 	str	r1, [fp, #-20]	; 0xffffffec
  104758:	e50b2018 	str	r2, [fp, #-24]	; 0xffffffe8
  10475c:	e58b3008 	str	r3, [fp, #8]
  104760:	e24b3024 	sub	r3, fp, #36	; 0x24
  104764:	e28b2008 	add	r2, fp, #8
  104768:	e8920003 	ldm	r2, {r0, r1}
  10476c:	e8830003 	stm	r3, {r0, r1}
  104770:	e51b3010 	ldr	r3, [fp, #-16]
  104774:	e3a02000 	mov	r2, #0
  104778:	e5832000 	str	r2, [r3]
  10477c:	e51b3010 	ldr	r3, [fp, #-16]
  104780:	e2833a05 	add	r3, r3, #20480	; 0x5000
  104784:	e3a02002 	mov	r2, #2
  104788:	e5c322f0 	strb	r2, [r3, #752]	; 0x2f0
  10478c:	e51b3010 	ldr	r3, [fp, #-16]
  104790:	e2832008 	add	r2, r3, #8
  104794:	e51b3010 	ldr	r3, [fp, #-16]
  104798:	e5832000 	str	r2, [r3]
  10479c:	e51b3010 	ldr	r3, [fp, #-16]
  1047a0:	e2833e2f 	add	r3, r3, #752	; 0x2f0
  1047a4:	e1a05003 	mov	r5, r3
  1047a8:	e30334f0 	movw	r3, #13552	; 0x34f0
  1047ac:	e3403011 	movt	r3, #17
  1047b0:	e593e000 	ldr	lr, [r3]
  1047b4:	e51b3010 	ldr	r3, [fp, #-16]
  1047b8:	e2833a05 	add	r3, r3, #20480	; 0x5000
  1047bc:	e2833e2f 	add	r3, r3, #752	; 0x2f0
  1047c0:	e1d330d0 	ldrsb	r3, [r3]
  1047c4:	e1a04003 	mov	r4, r3
  1047c8:	e51b2010 	ldr	r2, [fp, #-16]
  1047cc:	e51b3010 	ldr	r3, [fp, #-16]
  1047d0:	e5933000 	ldr	r3, [r3]
  1047d4:	e58d3024 	str	r3, [sp, #36]	; 0x24
  1047d8:	e28dc01c 	add	ip, sp, #28
  1047dc:	e24b3024 	sub	r3, fp, #36	; 0x24
  1047e0:	e8930003 	ldm	r3, {r0, r1}
  1047e4:	e88c0003 	stm	ip, {r0, r1}
  1047e8:	e51b3018 	ldr	r3, [fp, #-24]	; 0xffffffe8
  1047ec:	e58d3018 	str	r3, [sp, #24]
  1047f0:	e30334ec 	movw	r3, #13548	; 0x34ec
  1047f4:	e3403011 	movt	r3, #17
  1047f8:	e58d3014 	str	r3, [sp, #20]
  1047fc:	e58d2010 	str	r2, [sp, #16]
  104800:	e3043920 	movw	r3, #18720	; 0x4920
  104804:	e3403010 	movt	r3, #16
  104808:	e58d300c 	str	r3, [sp, #12]
  10480c:	e58d4008 	str	r4, [sp, #8]
  104810:	e3a03002 	mov	r3, #2
  104814:	e58d3004 	str	r3, [sp, #4]
  104818:	e3a03102 	mov	r3, #-2147483648	; 0x80000000
  10481c:	e58d3000 	str	r3, [sp]
  104820:	e3a03000 	mov	r3, #0
  104824:	e1a0200e 	mov	r2, lr
  104828:	e1a01005 	mov	r1, r5
  10482c:	e3e00000 	mvn	r0, #0
  104830:	eb001298 	bl	109298 <system__tasking__restricted__stages__create_restricted_task>
  104834:	e24bd00c 	sub	sp, fp, #12
  104838:	e8bd4830 	pop	{r4, r5, fp, lr}
  10483c:	e28dd008 	add	sp, sp, #8
  104840:	e12fff1e 	bx	lr

00104844 <two_tasks__aTK___finalizer.5963>:
  104844:	e92d4800 	push	{fp, lr}
  104848:	e28db004 	add	fp, sp, #4
  10484c:	e24dd008 	sub	sp, sp, #8
  104850:	e50bc008 	str	ip, [fp, #-8]
  104854:	eb001284 	bl	10926c <system__tasking__restricted__stages__complete_restricted_task>
  104858:	e24bd004 	sub	sp, fp, #4
  10485c:	e8bd8800 	pop	{fp, pc}

00104860 <two_tasks__aTKB>:
  104860:	e92d4830 	push	{r4, r5, fp, lr}
  104864:	e28db00c 	add	fp, sp, #12
  104868:	e24dd020 	sub	sp, sp, #32
  10486c:	e50b0028 	str	r0, [fp, #-40]	; 0xffffffd8
  104870:	e28b3004 	add	r3, fp, #4
  104874:	e50b3020 	str	r3, [fp, #-32]	; 0xffffffe0
  104878:	e3a00f7d 	mov	r0, #500	; 0x1f4
  10487c:	eb0001a9 	bl	104f28 <ada__real_time__milliseconds>
  104880:	e1a02000 	mov	r2, r0
  104884:	e1a03001 	mov	r3, r1
  104888:	e14b21fc 	strd	r2, [fp, #-28]	; 0xffffffe4
  10488c:	eb001275 	bl	109268 <system__tasking__restricted__stages__complete_restricted_activation>
  104890:	eb00018a 	bl	104ec0 <ada__real_time__clock>
  104894:	e14b21dc 	ldrd	r2, [fp, #-28]	; 0xffffffe4
  104898:	eb0000c0 	bl	104ba0 <ada__real_time__Oadd>
  10489c:	e1a02000 	mov	r2, r0
  1048a0:	e1a03001 	mov	r3, r1
  1048a4:	e14b21f4 	strd	r2, [fp, #-20]	; 0xffffffec
  1048a8:	e14b01d4 	ldrd	r0, [fp, #-20]	; 0xffffffec
  1048ac:	eb0002e6 	bl	10544c <ada__real_time__delays__delay_until>
  1048b0:	e14b21dc 	ldrd	r2, [fp, #-28]	; 0xffffffe4
  1048b4:	e14b01d4 	ldrd	r0, [fp, #-20]	; 0xffffffec
  1048b8:	eb0000b8 	bl	104ba0 <ada__real_time__Oadd>
  1048bc:	e1a02000 	mov	r2, r0
  1048c0:	e1a03001 	mov	r3, r1
  1048c4:	e14b21f4 	strd	r2, [fp, #-20]	; 0xffffffec
  1048c8:	eafffff6 	b	1048a8 <two_tasks__aTKB+0x48>
  1048cc:	e1a05000 	mov	r5, r0
  1048d0:	e3a04001 	mov	r4, #1
  1048d4:	e320f000 	nop	{0}
  1048d8:	e24b3020 	sub	r3, fp, #32
  1048dc:	e1a0c003 	mov	ip, r3
  1048e0:	ebffffd7 	bl	104844 <two_tasks__aTK___finalizer.5963>
  1048e4:	e3540001 	cmp	r4, #1
  1048e8:	1a000002 	bne	1048f8 <two_tasks__aTKB+0x98>
  1048ec:	e1a03005 	mov	r3, r5
  1048f0:	e1a00003 	mov	r0, r3
  1048f4:	fa00313e 	blx	110df4 <_Unwind_Resume>
  1048f8:	e320f000 	nop	{0}
  1048fc:	e24bd00c 	sub	sp, fp, #12
  104900:	e8bd8830 	pop	{r4, r5, fp, pc}

00104904 <two_tasks__bTK___finalizer.5988>:
  104904:	e92d4800 	push	{fp, lr}
  104908:	e28db004 	add	fp, sp, #4
  10490c:	e24dd008 	sub	sp, sp, #8
  104910:	e50bc008 	str	ip, [fp, #-8]
  104914:	eb001254 	bl	10926c <system__tasking__restricted__stages__complete_restricted_task>
  104918:	e24bd004 	sub	sp, fp, #4
  10491c:	e8bd8800 	pop	{fp, pc}

00104920 <two_tasks__bTKB>:
  104920:	e92d4830 	push	{r4, r5, fp, lr}
  104924:	e28db00c 	add	fp, sp, #12
  104928:	e24dd020 	sub	sp, sp, #32
  10492c:	e50b0028 	str	r0, [fp, #-40]	; 0xffffffd8
  104930:	e28b3004 	add	r3, fp, #4
  104934:	e50b3020 	str	r3, [fp, #-32]	; 0xffffffe0
  104938:	e3000514 	movw	r0, #1300	; 0x514
  10493c:	eb000179 	bl	104f28 <ada__real_time__milliseconds>
  104940:	e1a02000 	mov	r2, r0
  104944:	e1a03001 	mov	r3, r1
  104948:	e14b21fc 	strd	r2, [fp, #-28]	; 0xffffffe4
  10494c:	eb001245 	bl	109268 <system__tasking__restricted__stages__complete_restricted_activation>
  104950:	eb00015a 	bl	104ec0 <ada__real_time__clock>
  104954:	e14b21dc 	ldrd	r2, [fp, #-28]	; 0xffffffe4
  104958:	eb000090 	bl	104ba0 <ada__real_time__Oadd>
  10495c:	e1a02000 	mov	r2, r0
  104960:	e1a03001 	mov	r3, r1
  104964:	e14b21f4 	strd	r2, [fp, #-20]	; 0xffffffec
  104968:	e14b01d4 	ldrd	r0, [fp, #-20]	; 0xffffffec
  10496c:	eb0002b6 	bl	10544c <ada__real_time__delays__delay_until>
  104970:	e14b21dc 	ldrd	r2, [fp, #-28]	; 0xffffffe4
  104974:	e14b01d4 	ldrd	r0, [fp, #-20]	; 0xffffffec
  104978:	eb000088 	bl	104ba0 <ada__real_time__Oadd>
  10497c:	e1a02000 	mov	r2, r0
  104980:	e1a03001 	mov	r3, r1
  104984:	e14b21f4 	strd	r2, [fp, #-20]	; 0xffffffec
  104988:	eafffff6 	b	104968 <two_tasks__bTKB+0x48>
  10498c:	e1a05000 	mov	r5, r0
  104990:	e3a04001 	mov	r4, #1
  104994:	e320f000 	nop	{0}
  104998:	e24b3020 	sub	r3, fp, #32
  10499c:	e1a0c003 	mov	ip, r3
  1049a0:	ebffffd7 	bl	104904 <two_tasks__bTK___finalizer.5988>
  1049a4:	e3540001 	cmp	r4, #1
  1049a8:	1a000002 	bne	1049b8 <two_tasks__bTKB+0x98>
  1049ac:	e1a03005 	mov	r3, r5
  1049b0:	e1a00003 	mov	r0, r3
  1049b4:	fa00310e 	blx	110df4 <_Unwind_Resume>
  1049b8:	e320f000 	nop	{0}
  1049bc:	e24bd00c 	sub	sp, fp, #12
  1049c0:	e8bd8830 	pop	{r4, r5, fp, pc}

001049c4 <two_tasks___elabb>:
  1049c4:	e92d4800 	push	{fp, lr}
  1049c8:	e28db004 	add	fp, sp, #4
  1049cc:	e30334e6 	movw	r3, #13542	; 0x34e6
  1049d0:	e3403011 	movt	r3, #17
  1049d4:	e3a02001 	mov	r2, #1
  1049d8:	e5c32000 	strb	r2, [r3]
  1049dc:	e30334ec 	movw	r3, #13548	; 0x34ec
  1049e0:	e3403011 	movt	r3, #17
  1049e4:	e3a02001 	mov	r2, #1
  1049e8:	e5c32000 	strb	r2, [r3]
  1049ec:	e3060f60 	movw	r0, #28512	; 0x6f60
  1049f0:	e3400011 	movt	r0, #17
  1049f4:	eb00120f 	bl	109238 <system__tasking__restricted__stages__activate_restricted_tasks>
  1049f8:	e8bd8800 	pop	{fp, pc}

001049fc <two_tasks___elabs>:
  1049fc:	e92d48f0 	push	{r4, r5, r6, r7, fp, lr}
  104a00:	e28db014 	add	fp, sp, #20
  104a04:	e24dd010 	sub	sp, sp, #16
  104a08:	e3060f60 	movw	r0, #28512	; 0x6f60
  104a0c:	e3400011 	movt	r0, #17
  104a10:	eb001280 	bl	109418 <system__tasking__activation_chainIP>
  104a14:	e3016400 	movw	r6, #5120	; 0x1400
  104a18:	e3406011 	movt	r6, #17
  104a1c:	e3017408 	movw	r7, #5128	; 0x1408
  104a20:	e3407011 	movt	r7, #17
  104a24:	e14b61fc 	strd	r6, [fp, #-28]	; 0xffffffe4
  104a28:	e51b3018 	ldr	r3, [fp, #-24]	; 0xffffffe8
  104a2c:	e58d3000 	str	r3, [sp]
  104a30:	e1a03006 	mov	r3, r6
  104a34:	e3062f60 	movw	r2, #28512	; 0x6f60
  104a38:	e3402011 	movt	r2, #17
  104a3c:	e3a01003 	mov	r1, #3
  104a40:	e3060f68 	movw	r0, #28520	; 0x6f68
  104a44:	e3400011 	movt	r0, #17
  104a48:	ebfffefb 	bl	10463c <two_tasks__aTKVIP>
  104a4c:	e3014404 	movw	r4, #5124	; 0x1404
  104a50:	e3404011 	movt	r4, #17
  104a54:	e3015408 	movw	r5, #5128	; 0x1408
  104a58:	e3405011 	movt	r5, #17
  104a5c:	e14b41fc 	strd	r4, [fp, #-28]	; 0xffffffe4
  104a60:	e51b3018 	ldr	r3, [fp, #-24]	; 0xffffffe8
  104a64:	e58d3000 	str	r3, [sp]
  104a68:	e1a03004 	mov	r3, r4
  104a6c:	e3062f60 	movw	r2, #28512	; 0x6f60
  104a70:	e3402011 	movt	r2, #17
  104a74:	e3a01003 	mov	r1, #3
  104a78:	e30c0260 	movw	r0, #49760	; 0xc260
  104a7c:	e3400011 	movt	r0, #17
  104a80:	ebffff2e 	bl	104740 <two_tasks__bTKVIP>
  104a84:	e24bd014 	sub	sp, fp, #20
  104a88:	e8bd88f0 	pop	{r4, r5, r6, r7, fp, pc}

00104a8c <ada__real_time__Oadd__2>:
  104a8c:	e92d0030 	push	{r4, r5}
  104a90:	e1a04002 	mov	r4, r2
  104a94:	e1a05003 	mov	r5, r3
  104a98:	e1a02000 	mov	r2, r0
  104a9c:	e1a03001 	mov	r3, r1
  104aa0:	e1a00004 	mov	r0, r4
  104aa4:	e1a01005 	mov	r1, r5
  104aa8:	e8bd0030 	pop	{r4, r5}
  104aac:	ea00003b 	b	104ba0 <ada__real_time__Oadd>

00104ab0 <ada__real_time__Omultiply>:
  104ab0:	e3500001 	cmp	r0, #1
  104ab4:	e92d4f70 	push	{r4, r5, r6, r8, r9, sl, fp, lr}
  104ab8:	e2d13000 	sbcs	r3, r1, #0
  104abc:	e24dd008 	sub	sp, sp, #8
  104ac0:	e1a04000 	mov	r4, r0
  104ac4:	e1a05001 	mov	r5, r1
  104ac8:	e1a06002 	mov	r6, r2
  104acc:	a1a03fa2 	lsrge	r3, r2, #31
  104ad0:	aa000003 	bge	104ae4 <ada__real_time__Omultiply+0x34>
  104ad4:	e3520000 	cmp	r2, #0
  104ad8:	d3a03000 	movle	r3, #0
  104adc:	c3a03001 	movgt	r3, #1
  104ae0:	e0033fa1 	and	r3, r3, r1, lsr #31
  104ae4:	e3530000 	cmp	r3, #0
  104ae8:	03e00000 	mvneq	r0, #0
  104aec:	03e01102 	mvneq	r1, #-2147483648	; 0x80000000
  104af0:	13a00000 	movne	r0, #0
  104af4:	13a01102 	movne	r1, #-2147483648	; 0x80000000
  104af8:	e3550102 	cmp	r5, #-2147483648	; 0x80000000
  104afc:	03540000 	cmpeq	r4, #0
  104b00:	0a000019 	beq	104b6c <ada__real_time__Omultiply+0xbc>
  104b04:	e1a02fc5 	asr	r2, r5, #31
  104b08:	e0228004 	eor	r8, r2, r4
  104b0c:	e0229005 	eor	r9, r2, r5
  104b10:	e0588002 	subs	r8, r8, r2
  104b14:	e0c99002 	sbc	r9, r9, r2
  104b18:	e1cd80f0 	strd	r8, [sp]
  104b1c:	e1a09fc6 	asr	r9, r6, #31
  104b20:	e1a08006 	mov	r8, r6
  104b24:	e1983009 	orrs	r3, r8, r9
  104b28:	0a000009 	beq	104b54 <ada__real_time__Omultiply+0xa4>
  104b2c:	e1a0afc9 	asr	sl, r9, #31
  104b30:	e02a2006 	eor	r2, sl, r6
  104b34:	e02a3009 	eor	r3, sl, r9
  104b38:	e052200a 	subs	r2, r2, sl
  104b3c:	e0c3300a 	sbc	r3, r3, sl
  104b40:	fa002d71 	blx	11010c <__aeabi_uldivmod>
  104b44:	e1cd20d0 	ldrd	r2, [sp]
  104b48:	e1510003 	cmp	r1, r3
  104b4c:	01500002 	cmpeq	r0, r2
  104b50:	3a000007 	bcc	104b74 <ada__real_time__Omultiply+0xc4>
  104b54:	e0030596 	mul	r3, r6, r5
  104b58:	e0810496 	umull	r0, r1, r6, r4
  104b5c:	e0243994 	mla	r4, r4, r9, r3
  104b60:	e0841001 	add	r1, r4, r1
  104b64:	e28dd008 	add	sp, sp, #8
  104b68:	e8bd8f70 	pop	{r4, r5, r6, r8, r9, sl, fp, pc}
  104b6c:	e1cd40f0 	strd	r4, [sp]
  104b70:	eaffffe9 	b	104b1c <ada__real_time__Omultiply+0x6c>
  104b74:	e3010418 	movw	r0, #5144	; 0x1418
  104b78:	e3a010ac 	mov	r1, #172	; 0xac
  104b7c:	e3400011 	movt	r0, #17
  104b80:	eb001e65 	bl	10c51c <__gnat_rcheck_CE_Explicit_Raise>

00104b84 <ada__real_time__Omultiply__2>:
  104b84:	e92d0030 	push	{r4, r5}
  104b88:	e1a04002 	mov	r4, r2
  104b8c:	e1a01003 	mov	r1, r3
  104b90:	e1a02000 	mov	r2, r0
  104b94:	e1a00004 	mov	r0, r4
  104b98:	e8bd0030 	pop	{r4, r5}
  104b9c:	eaffffc3 	b	104ab0 <ada__real_time__Omultiply>

00104ba0 <ada__real_time__Oadd>:
  104ba0:	e3520000 	cmp	r2, #0
  104ba4:	e92d41f0 	push	{r4, r5, r6, r7, r8, lr}
  104ba8:	e1a07001 	mov	r7, r1
  104bac:	e2d31000 	sbcs	r1, r3, #0
  104bb0:	e1a06000 	mov	r6, r0
  104bb4:	ba00000f 	blt	104bf8 <ada__real_time__Oadd+0x58>
  104bb8:	e1e05007 	mvn	r5, r7
  104bbc:	e1e04000 	mvn	r4, r0
  104bc0:	e1550003 	cmp	r5, r3
  104bc4:	01540002 	cmpeq	r4, r2
  104bc8:	2a000007 	bcs	104bec <ada__real_time__Oadd+0x4c>
  104bcc:	e3530102 	cmp	r3, #-2147483648	; 0x80000000
  104bd0:	03520001 	cmpeq	r2, #1
  104bd4:	3a000010 	bcc	104c1c <ada__real_time__Oadd+0x7c>
  104bd8:	e2724000 	rsbs	r4, r2, #0
  104bdc:	e2e35000 	rsc	r5, r3, #0
  104be0:	e1550007 	cmp	r5, r7
  104be4:	01540006 	cmpeq	r4, r6
  104be8:	8a00000b 	bhi	104c1c <ada__real_time__Oadd+0x7c>
  104bec:	e0960002 	adds	r0, r6, r2
  104bf0:	e0a71003 	adc	r1, r7, r3
  104bf4:	e8bd81f0 	pop	{r4, r5, r6, r7, r8, pc}
  104bf8:	e3530102 	cmp	r3, #-2147483648	; 0x80000000
  104bfc:	03520000 	cmpeq	r2, #0
  104c00:	13a0c000 	movne	ip, #0
  104c04:	01a0cfa7 	lsreq	ip, r7, #31
  104c08:	e35c0000 	cmp	ip, #0
  104c0c:	0affffee 	beq	104bcc <ada__real_time__Oadd+0x2c>
  104c10:	e2900000 	adds	r0, r0, #0
  104c14:	e2a71102 	adc	r1, r7, #-2147483648	; 0x80000000
  104c18:	e8bd81f0 	pop	{r4, r5, r6, r7, r8, pc}
  104c1c:	e3010418 	movw	r0, #5144	; 0x1418
  104c20:	e3a010d4 	mov	r1, #212	; 0xd4
  104c24:	e3400011 	movt	r0, #17
  104c28:	eb001e3b 	bl	10c51c <__gnat_rcheck_CE_Explicit_Raise>

00104c2c <ada__real_time__Oadd__3>:
  104c2c:	e92d4070 	push	{r4, r5, r6, lr}
  104c30:	e0904002 	adds	r4, r0, r2
  104c34:	e0b15003 	adcs	r5, r1, r3
  104c38:	e1a00004 	mov	r0, r4
  104c3c:	e1a01005 	mov	r1, r5
  104c40:	63a04001 	movvs	r4, #1
  104c44:	73a04000 	movvc	r4, #0
  104c48:	e3a05000 	mov	r5, #0
  104c4c:	e1943005 	orrs	r3, r4, r5
  104c50:	08bd8070 	popeq	{r4, r5, r6, pc}
  104c54:	e3010418 	movw	r0, #5144	; 0x1418
  104c58:	e3a010db 	mov	r1, #219	; 0xdb
  104c5c:	e3400011 	movt	r0, #17
  104c60:	eb001e4b 	bl	10c594 <__gnat_rcheck_CE_Overflow_Check>

00104c64 <ada__real_time__Osubtract>:
  104c64:	e1530001 	cmp	r3, r1
  104c68:	e92d47f0 	push	{r4, r5, r6, r7, r8, r9, sl, lr}
  104c6c:	01520000 	cmpeq	r2, r0
  104c70:	e1a08000 	mov	r8, r0
  104c74:	93a0c001 	movls	ip, #1
  104c78:	83a0c000 	movhi	ip, #0
  104c7c:	e3530000 	cmp	r3, #0
  104c80:	b3a0c000 	movlt	ip, #0
  104c84:	a20cc001 	andge	ip, ip, #1
  104c88:	e1a09001 	mov	r9, r1
  104c8c:	e35c0000 	cmp	ip, #0
  104c90:	1a000012 	bne	104ce0 <ada__real_time__Osubtract+0x7c>
  104c94:	e3530102 	cmp	r3, #-2147483648	; 0x80000000
  104c98:	03520000 	cmpeq	r2, #0
  104c9c:	03a0c001 	moveq	ip, #1
  104ca0:	13a0c000 	movne	ip, #0
  104ca4:	e3510000 	cmp	r1, #0
  104ca8:	b3a0c000 	movlt	ip, #0
  104cac:	a20cc001 	andge	ip, ip, #1
  104cb0:	e35c0000 	cmp	ip, #0
  104cb4:	1a00000c 	bne	104cec <ada__real_time__Osubtract+0x88>
  104cb8:	e3530102 	cmp	r3, #-2147483648	; 0x80000000
  104cbc:	03520001 	cmpeq	r2, #1
  104cc0:	3a00000c 	bcc	104cf8 <ada__real_time__Osubtract+0x94>
  104cc4:	e2726000 	rsbs	r6, r2, #0
  104cc8:	e1e05001 	mvn	r5, r1
  104ccc:	e2e37000 	rsc	r7, r3, #0
  104cd0:	e1e04000 	mvn	r4, r0
  104cd4:	e1550007 	cmp	r5, r7
  104cd8:	01540006 	cmpeq	r4, r6
  104cdc:	3a000005 	bcc	104cf8 <ada__real_time__Osubtract+0x94>
  104ce0:	e0580002 	subs	r0, r8, r2
  104ce4:	e0c91003 	sbc	r1, r9, r3
  104ce8:	e8bd87f0 	pop	{r4, r5, r6, r7, r8, r9, sl, pc}
  104cec:	e2900000 	adds	r0, r0, #0
  104cf0:	e2a11102 	adc	r1, r1, #-2147483648	; 0x80000000
  104cf4:	e8bd87f0 	pop	{r4, r5, r6, r7, r8, r9, sl, pc}
  104cf8:	e3010418 	movw	r0, #5144	; 0x1418
  104cfc:	e3a010fb 	mov	r1, #251	; 0xfb
  104d00:	e3400011 	movt	r0, #17
  104d04:	eb001e04 	bl	10c51c <__gnat_rcheck_CE_Explicit_Raise>

00104d08 <ada__real_time__Osubtract__2>:
  104d08:	e1510003 	cmp	r1, r3
  104d0c:	e92d4070 	push	{r4, r5, r6, lr}
  104d10:	01500002 	cmpeq	r0, r2
  104d14:	e1a04000 	mov	r4, r0
  104d18:	e1a05001 	mov	r5, r1
  104d1c:	3a000008 	bcc	104d44 <ada__real_time__Osubtract__2+0x3c>
  104d20:	e0500002 	subs	r0, r0, r2
  104d24:	e0c11003 	sbc	r1, r1, r3
  104d28:	e3500000 	cmp	r0, #0
  104d2c:	e2d13000 	sbcs	r3, r1, #0
  104d30:	a8bd8070 	popge	{r4, r5, r6, pc}
  104d34:	e3010418 	movw	r0, #5144	; 0x1418
  104d38:	e3001111 	movw	r1, #273	; 0x111
  104d3c:	e3400011 	movt	r0, #17
  104d40:	eb001df5 	bl	10c51c <__gnat_rcheck_CE_Explicit_Raise>
  104d44:	e0522000 	subs	r2, r2, r0
  104d48:	e0c33001 	sbc	r3, r3, r1
  104d4c:	e3530102 	cmp	r3, #-2147483648	; 0x80000000
  104d50:	03520000 	cmpeq	r2, #0
  104d54:	8afffff6 	bhi	104d34 <ada__real_time__Osubtract__2+0x2c>
  104d58:	e2720000 	rsbs	r0, r2, #0
  104d5c:	e2e31000 	rsc	r1, r3, #0
  104d60:	e8bd8070 	pop	{r4, r5, r6, pc}

00104d64 <ada__real_time__Osubtract__3>:
  104d64:	e92d4070 	push	{r4, r5, r6, lr}
  104d68:	e0504002 	subs	r4, r0, r2
  104d6c:	e0d15003 	sbcs	r5, r1, r3
  104d70:	e1a00004 	mov	r0, r4
  104d74:	e1a01005 	mov	r1, r5
  104d78:	63a04001 	movvs	r4, #1
  104d7c:	73a04000 	movvc	r4, #0
  104d80:	e3a05000 	mov	r5, #0
  104d84:	e1943005 	orrs	r3, r4, r5
  104d88:	08bd8070 	popeq	{r4, r5, r6, pc}
  104d8c:	e3010418 	movw	r0, #5144	; 0x1418
  104d90:	e3a01f46 	mov	r1, #280	; 0x118
  104d94:	e3400011 	movt	r0, #17
  104d98:	eb001dfd 	bl	10c594 <__gnat_rcheck_CE_Overflow_Check>

00104d9c <ada__real_time__Osubtract__4>:
  104d9c:	e3510102 	cmp	r1, #-2147483648	; 0x80000000
  104da0:	03500000 	cmpeq	r0, #0
  104da4:	0a000002 	beq	104db4 <ada__real_time__Osubtract__4+0x18>
  104da8:	e2700000 	rsbs	r0, r0, #0
  104dac:	e2e11000 	rsc	r1, r1, #0
  104db0:	e12fff1e 	bx	lr
  104db4:	e3010418 	movw	r0, #5144	; 0x1418
  104db8:	e92d4010 	push	{r4, lr}
  104dbc:	e300111e 	movw	r1, #286	; 0x11e
  104dc0:	e3400011 	movt	r0, #17
  104dc4:	eb001df2 	bl	10c594 <__gnat_rcheck_CE_Overflow_Check>

00104dc8 <ada__real_time__Odivide>:
  104dc8:	e92d41f0 	push	{r4, r5, r6, r7, r8, lr}
  104dcc:	e1a04002 	mov	r4, r2
  104dd0:	e1a05003 	mov	r5, r3
  104dd4:	e194c005 	orrs	ip, r4, r5
  104dd8:	0a000017 	beq	104e3c <ada__real_time__Odivide+0x74>
  104ddc:	e3510102 	cmp	r1, #-2147483648	; 0x80000000
  104de0:	e0044003 	and	r4, r4, r3
  104de4:	03500000 	cmpeq	r0, #0
  104de8:	e1a06000 	mov	r6, r0
  104dec:	03a0c001 	moveq	ip, #1
  104df0:	13a0c000 	movne	ip, #0
  104df4:	e3740001 	cmn	r4, #1
  104df8:	e1a07001 	mov	r7, r1
  104dfc:	13a04000 	movne	r4, #0
  104e00:	03a04001 	moveq	r4, #1
  104e04:	e11c0004 	tst	ip, r4
  104e08:	1a000007 	bne	104e2c <ada__real_time__Odivide+0x64>
  104e0c:	fa002c96 	blx	11006c <__aeabi_ldivmod>
  104e10:	e2904102 	adds	r4, r0, #-2147483648	; 0x80000000
  104e14:	e3a03000 	mov	r3, #0
  104e18:	e2a15000 	adc	r5, r1, #0
  104e1c:	e3e02000 	mvn	r2, #0
  104e20:	e1550003 	cmp	r5, r3
  104e24:	01540002 	cmpeq	r4, r2
  104e28:	98bd81f0 	popls	{r4, r5, r6, r7, r8, pc}
  104e2c:	e3010418 	movw	r0, #5144	; 0x1418
  104e30:	e3001129 	movw	r1, #297	; 0x129
  104e34:	e3400011 	movt	r0, #17
  104e38:	eb001dd5 	bl	10c594 <__gnat_rcheck_CE_Overflow_Check>
  104e3c:	e3010418 	movw	r0, #5144	; 0x1418
  104e40:	e3001129 	movw	r1, #297	; 0x129
  104e44:	e3400011 	movt	r0, #17
  104e48:	eb001dae 	bl	10c508 <__gnat_rcheck_CE_Divide_By_Zero>

00104e4c <ada__real_time__Odivide__2>:
  104e4c:	e3520000 	cmp	r2, #0
  104e50:	e92d41f0 	push	{r4, r5, r6, r7, r8, lr}
  104e54:	0a000011 	beq	104ea0 <ada__real_time__Odivide__2+0x54>
  104e58:	e1a05fc2 	asr	r5, r2, #31
  104e5c:	e3510102 	cmp	r1, #-2147483648	; 0x80000000
  104e60:	03500000 	cmpeq	r0, #0
  104e64:	e0023005 	and	r3, r2, r5
  104e68:	e1a04002 	mov	r4, r2
  104e6c:	03a02001 	moveq	r2, #1
  104e70:	13a02000 	movne	r2, #0
  104e74:	e3730001 	cmn	r3, #1
  104e78:	e1a06000 	mov	r6, r0
  104e7c:	13a03000 	movne	r3, #0
  104e80:	03a03001 	moveq	r3, #1
  104e84:	e1120003 	tst	r2, r3
  104e88:	e1a07001 	mov	r7, r1
  104e8c:	1a000007 	bne	104eb0 <ada__real_time__Odivide__2+0x64>
  104e90:	e1a02004 	mov	r2, r4
  104e94:	e1a03005 	mov	r3, r5
  104e98:	fa002c73 	blx	11006c <__aeabi_ldivmod>
  104e9c:	e8bd81f0 	pop	{r4, r5, r6, r7, r8, pc}
  104ea0:	e3010418 	movw	r0, #5144	; 0x1418
  104ea4:	e3a01e13 	mov	r1, #304	; 0x130
  104ea8:	e3400011 	movt	r0, #17
  104eac:	eb001d95 	bl	10c508 <__gnat_rcheck_CE_Divide_By_Zero>
  104eb0:	e3010418 	movw	r0, #5144	; 0x1418
  104eb4:	e3a01e13 	mov	r1, #304	; 0x130
  104eb8:	e3400011 	movt	r0, #17
  104ebc:	eb001db4 	bl	10c594 <__gnat_rcheck_CE_Overflow_Check>

00104ec0 <ada__real_time__clock>:
  104ec0:	ea0008ce 	b	107200 <system__bb__board_support__time__read_clock>
  104ec4:	00000000 	andeq	r0, r0, r0

00104ec8 <ada__real_time__microseconds>:
  104ec8:	e3a03db5 	mov	r3, #11584	; 0x2d40
  104ecc:	e92d4070 	push	{r4, r5, r6, lr}
  104ed0:	e34133d9 	movt	r3, #5081	; 0x13d9
  104ed4:	e0c54390 	smull	r4, r5, r0, r3
  104ed8:	e3540000 	cmp	r4, #0
  104edc:	e2d53000 	sbcs	r3, r5, #0
  104ee0:	ba000009 	blt	104f0c <ada__real_time__microseconds+0x44>
  104ee4:	e30a2120 	movw	r2, #41248	; 0xa120
  104ee8:	e3a03000 	mov	r3, #0
  104eec:	e3402007 	movt	r2, #7
  104ef0:	e0940002 	adds	r0, r4, r2
  104ef4:	e0a51003 	adc	r1, r5, r3
  104ef8:	e3042240 	movw	r2, #16960	; 0x4240
  104efc:	e3a03000 	mov	r3, #0
  104f00:	e340200f 	movt	r2, #15
  104f04:	fa002c58 	blx	11006c <__aeabi_ldivmod>
  104f08:	e8bd8070 	pop	{r4, r5, r6, pc}
  104f0c:	e28f300c 	add	r3, pc, #12
  104f10:	e1c320d0 	ldrd	r2, [r3]
  104f14:	e0940002 	adds	r0, r4, r2
  104f18:	e0a51003 	adc	r1, r5, r3
  104f1c:	eafffff5 	b	104ef8 <ada__real_time__microseconds+0x30>
  104f20:	fff85ee0 			; <UNDEFINED> instruction: 0xfff85ee0
  104f24:	ffffffff 			; <UNDEFINED> instruction: 0xffffffff

00104f28 <ada__real_time__milliseconds>:
  104f28:	e3a03db5 	mov	r3, #11584	; 0x2d40
  104f2c:	e92d4070 	push	{r4, r5, r6, lr}
  104f30:	e34133d9 	movt	r3, #5081	; 0x13d9
  104f34:	e0c54390 	smull	r4, r5, r0, r3
  104f38:	e3540000 	cmp	r4, #0
  104f3c:	e2d53000 	sbcs	r3, r5, #0
  104f40:	ba000005 	blt	104f5c <ada__real_time__milliseconds+0x34>
  104f44:	e2940f7d 	adds	r0, r4, #500	; 0x1f4
  104f48:	e2a51000 	adc	r1, r5, #0
  104f4c:	e3a02ffa 	mov	r2, #1000	; 0x3e8
  104f50:	e3a03000 	mov	r3, #0
  104f54:	fa002c44 	blx	11006c <__aeabi_ldivmod>
  104f58:	e8bd8070 	pop	{r4, r5, r6, pc}
  104f5c:	e2540f7d 	subs	r0, r4, #500	; 0x1f4
  104f60:	e2c51000 	sbc	r1, r5, #0
  104f64:	eafffff8 	b	104f4c <ada__real_time__milliseconds+0x24>

00104f68 <ada__real_time__minutes>:
  104f68:	e3a0203c 	mov	r2, #60	; 0x3c
  104f6c:	e92d41f0 	push	{r4, r5, r6, r7, r8, lr}
  104f70:	e0c32290 	smull	r2, r3, r0, r2
  104f74:	e28f5044 	add	r5, pc, #68	; 0x44
  104f78:	e1c540d0 	ldrd	r4, [r5]
  104f7c:	e28f1044 	add	r1, pc, #68	; 0x44
  104f80:	e1c100d0 	ldrd	r0, [r1]
  104f84:	e0946002 	adds	r6, r4, r2
  104f88:	e0a57003 	adc	r7, r5, r3
  104f8c:	e1570001 	cmp	r7, r1
  104f90:	01560000 	cmpeq	r6, r0
  104f94:	8a000004 	bhi	104fac <ada__real_time__minutes+0x44>
  104f98:	e3a0cdb5 	mov	ip, #11584	; 0x2d40
  104f9c:	e341c3d9 	movt	ip, #5081	; 0x13d9
  104fa0:	e0810c92 	umull	r0, r1, r2, ip
  104fa4:	e021139c 	mla	r1, ip, r3, r1
  104fa8:	e8bd81f0 	pop	{r4, r5, r6, r7, r8, pc}
  104fac:	e3010418 	movw	r0, #5144	; 0x1418
  104fb0:	e3001163 	movw	r1, #355	; 0x163
  104fb4:	e3400011 	movt	r0, #17
  104fb8:	eb001d57 	bl	10c51c <__gnat_rcheck_CE_Explicit_Raise>
  104fbc:	e320f000 	nop	{0}
  104fc0:	72eb19a4 	rscvc	r1, fp, #164, 18	; 0x290000
  104fc4:	00000006 	andeq	r0, r0, r6
  104fc8:	e5d63348 	ldrb	r3, [r6, #840]	; 0x348
  104fcc:	0000000c 	andeq	r0, r0, ip

00104fd0 <ada__real_time__mul_div>:
  104fd0:	e92d4ff0 	push	{r4, r5, r6, r7, r8, r9, sl, fp, lr}
  104fd4:	e1a04fc1 	asr	r4, r1, #31
  104fd8:	e1a09fc2 	asr	r9, r2, #31
  104fdc:	e24dd01c 	sub	sp, sp, #28
  104fe0:	e020a004 	eor	sl, r0, r4
  104fe4:	e1a05fc4 	asr	r5, r4, #31
  104fe8:	e05a6004 	subs	r6, sl, r4
  104fec:	e024a006 	eor	sl, r4, r6
  104ff0:	e1a08002 	mov	r8, r2
  104ff4:	e05aa004 	subs	sl, sl, r4
  104ff8:	e1cd80f8 	strd	r8, [sp, #8]
  104ffc:	e00c099a 	mul	ip, sl, r9
  105000:	e0c5b005 	sbc	fp, r5, r5
  105004:	e0906004 	adds	r6, r0, r4
  105008:	e0834fa3 	add	r4, r3, r3, lsr #31
  10500c:	e089829a 	umull	r8, r9, sl, r2
  105010:	e2a17000 	adc	r7, r1, #0
  105014:	e3500000 	cmp	r0, #0
  105018:	e2d11000 	sbcs	r1, r1, #0
  10501c:	e1a05fc7 	asr	r5, r7, #31
  105020:	e1a040c4 	asr	r4, r4, #1
  105024:	e1a00003 	mov	r0, r3
  105028:	e0050592 	mul	r5, r2, r5
  10502c:	a3a0e000 	movge	lr, #0
  105030:	e021cb92 	mla	r1, r2, fp, ip
  105034:	b3e0c000 	mvnlt	ip, #0
  105038:	e1a0bfc4 	asr	fp, r4, #31
  10503c:	b1a0e00c 	movlt	lr, ip
  105040:	e0819009 	add	r9, r1, r9
  105044:	e1a01fc3 	asr	r1, r3, #31
  105048:	e0832792 	umull	r2, r3, r2, r7
  10504c:	a3a0c001 	movge	ip, #1
  105050:	e1cd01f0 	strd	r0, [sp, #16]
  105054:	e00e0e94 	mul	lr, r4, lr
  105058:	e1cd20f0 	strd	r2, [sp]
  10505c:	e59d300c 	ldr	r3, [sp, #12]
  105060:	e02eeb9c 	mla	lr, ip, fp, lr
  105064:	e0225397 	mla	r2, r7, r3, r5
  105068:	e59d3004 	ldr	r3, [sp, #4]
  10506c:	e0854c94 	umull	r4, r5, r4, ip
  105070:	e0823003 	add	r3, r2, r3
  105074:	e58d3004 	str	r3, [sp, #4]
  105078:	e0942008 	adds	r2, r4, r8
  10507c:	e08e5005 	add	r5, lr, r5
  105080:	e0a53009 	adc	r3, r5, r9
  105084:	e1a04002 	mov	r4, r2
  105088:	e1a08fc3 	asr	r8, r3, #31
  10508c:	e1a0a004 	mov	sl, r4
  105090:	e1a05003 	mov	r5, r3
  105094:	e09aa008 	adds	sl, sl, r8
  105098:	e0244008 	eor	r4, r4, r8
  10509c:	e2a5b000 	adc	fp, r5, #0
  1050a0:	e0544008 	subs	r4, r4, r8
  1050a4:	e1a02000 	mov	r2, r0
  1050a8:	e1a03001 	mov	r3, r1
  1050ac:	e1a00008 	mov	r0, r8
  1050b0:	e1a01fc8 	asr	r1, r8, #31
  1050b4:	e028a004 	eor	sl, r8, r4
  1050b8:	e1a07fcb 	asr	r7, fp, #31
  1050bc:	e05a8000 	subs	r8, sl, r0
  1050c0:	e0c19001 	sbc	r9, r1, r1
  1050c4:	e1cd00d0 	ldrd	r0, [sp]
  1050c8:	e1a0600b 	mov	r6, fp
  1050cc:	e3a05000 	mov	r5, #0
  1050d0:	e3e04000 	mvn	r4, #0
  1050d4:	e0900006 	adds	r0, r0, r6
  1050d8:	e0a11007 	adc	r1, r1, r7
  1050dc:	fa002be2 	blx	11006c <__aeabi_ldivmod>
  1050e0:	e1a06000 	mov	r6, r0
  1050e4:	e1a07001 	mov	r7, r1
  1050e8:	e1a01002 	mov	r1, r2
  1050ec:	e2962102 	adds	r2, r6, #-2147483648	; 0x80000000
  1050f0:	e2a73000 	adc	r3, r7, #0
  1050f4:	e1530005 	cmp	r3, r5
  1050f8:	01520004 	cmpeq	r2, r4
  1050fc:	8a000008 	bhi	105124 <ada__real_time__mul_div+0x154>
  105100:	e3a04000 	mov	r4, #0
  105104:	e1cd21d0 	ldrd	r2, [sp, #16]
  105108:	e0940008 	adds	r0, r4, r8
  10510c:	e0a11009 	adc	r1, r1, r9
  105110:	fa002bd5 	blx	11006c <__aeabi_ldivmod>
  105114:	e0900004 	adds	r0, r0, r4
  105118:	e0a11006 	adc	r1, r1, r6
  10511c:	e28dd01c 	add	sp, sp, #28
  105120:	e8bd8ff0 	pop	{r4, r5, r6, r7, r8, r9, sl, fp, pc}
  105124:	e3010418 	movw	r0, #5144	; 0x1418
  105128:	e3a01f75 	mov	r1, #468	; 0x1d4
  10512c:	e3400011 	movt	r0, #17
  105130:	eb001cf9 	bl	10c51c <__gnat_rcheck_CE_Explicit_Raise>
  105134:	00000000 	andeq	r0, r0, r0

00105138 <ada__real_time__nanoseconds>:
  105138:	e3a03db5 	mov	r3, #11584	; 0x2d40
  10513c:	e92d4070 	push	{r4, r5, r6, lr}
  105140:	e34133d9 	movt	r3, #5081	; 0x13d9
  105144:	e0c54390 	smull	r4, r5, r0, r3
  105148:	e3540000 	cmp	r4, #0
  10514c:	e2d53000 	sbcs	r3, r5, #0
  105150:	ba000007 	blt	105174 <ada__real_time__nanoseconds+0x3c>
  105154:	e28f302c 	add	r3, pc, #44	; 0x2c
  105158:	e1c320d0 	ldrd	r2, [r3]
  10515c:	e0940002 	adds	r0, r4, r2
  105160:	e0a51003 	adc	r1, r5, r3
  105164:	e28f3024 	add	r3, pc, #36	; 0x24
  105168:	e1c320d0 	ldrd	r2, [r3]
  10516c:	fa002bbe 	blx	11006c <__aeabi_ldivmod>
  105170:	e8bd8070 	pop	{r4, r5, r6, pc}
  105174:	e28f301c 	add	r3, pc, #28
  105178:	e1c320d0 	ldrd	r2, [r3]
  10517c:	e0940002 	adds	r0, r4, r2
  105180:	e0a51003 	adc	r1, r5, r3
  105184:	eafffff6 	b	105164 <ada__real_time__nanoseconds+0x2c>
  105188:	1dcd6500 	cfstr64ne	mvdx6, [sp]
  10518c:	00000000 	andeq	r0, r0, r0
  105190:	3b9aca00 	blcc	fe7b7998 <__heap_end+0xbe8b7998>
  105194:	00000000 	andeq	r0, r0, r0
  105198:	e2329b00 	eors	r9, r2, #0, 22
  10519c:	ffffffff 			; <UNDEFINED> instruction: 0xffffffff

001051a0 <ada__real_time__rounded_div>:
  1051a0:	e3500000 	cmp	r0, #0
  1051a4:	e92d41f0 	push	{r4, r5, r6, r7, r8, lr}
  1051a8:	e1a07001 	mov	r7, r1
  1051ac:	e2d11000 	sbcs	r1, r1, #0
  1051b0:	e1a06000 	mov	r6, r0
  1051b4:	e1a0cfa3 	lsr	ip, r3, #31
  1051b8:	ba000007 	blt	1051dc <ada__real_time__rounded_div+0x3c>
  1051bc:	e092400c 	adds	r4, r2, ip
  1051c0:	e2a35000 	adc	r5, r3, #0
  1051c4:	e1b050c5 	asrs	r5, r5, #1
  1051c8:	e1a04064 	rrx	r4, r4
  1051cc:	e0900004 	adds	r0, r0, r4
  1051d0:	e0a71005 	adc	r1, r7, r5
  1051d4:	fa002ba4 	blx	11006c <__aeabi_ldivmod>
  1051d8:	e8bd81f0 	pop	{r4, r5, r6, r7, r8, pc}
  1051dc:	e092400c 	adds	r4, r2, ip
  1051e0:	e2a35000 	adc	r5, r3, #0
  1051e4:	e1b050c5 	asrs	r5, r5, #1
  1051e8:	e1a04064 	rrx	r4, r4
  1051ec:	e0500004 	subs	r0, r0, r4
  1051f0:	e0c71005 	sbc	r1, r7, r5
  1051f4:	fa002b9c 	blx	11006c <__aeabi_ldivmod>
  1051f8:	e8bd81f0 	pop	{r4, r5, r6, r7, r8, pc}

001051fc <ada__real_time__seconds>:
  1051fc:	e3a03db5 	mov	r3, #11584	; 0x2d40
  105200:	e34133d9 	movt	r3, #5081	; 0x13d9
  105204:	e0c10390 	smull	r0, r1, r0, r3
  105208:	e12fff1e 	bx	lr
  10520c:	00000000 	andeq	r0, r0, r0

00105210 <ada__real_time__split>:
  105210:	e92d4df0 	push	{r4, r5, r6, r7, r8, sl, fp, lr}
  105214:	e1a06002 	mov	r6, r2
  105218:	e1a07003 	mov	r7, r3
  10521c:	e1a04000 	mov	r4, r0
  105220:	e1a01007 	mov	r1, r7
  105224:	e1a00006 	mov	r0, r6
  105228:	e28f3080 	add	r3, pc, #128	; 0x80
  10522c:	e1c320d0 	ldrd	r2, [r3]
  105230:	fa002bb5 	blx	11010c <__aeabi_uldivmod>
  105234:	e1a05001 	mov	r5, r1
  105238:	e3a01db5 	mov	r1, #11584	; 0x2d40
  10523c:	e34113d9 	movt	r1, #5081	; 0x13d9
  105240:	e1a08000 	mov	r8, r0
  105244:	e08ba198 	umull	sl, fp, r8, r1
  105248:	e02bb591 	mla	fp, r1, r5, fp
  10524c:	e15b0007 	cmp	fp, r7
  105250:	015a0006 	cmpeq	sl, r6
  105254:	9a00000b 	bls	105288 <ada__real_time__split+0x78>
  105258:	e05a2006 	subs	r2, sl, r6
  10525c:	e0cb3007 	sbc	r3, fp, r7
  105260:	e3530102 	cmp	r3, #-2147483648	; 0x80000000
  105264:	03520000 	cmpeq	r2, #0
  105268:	8a00000c 	bhi	1052a0 <ada__real_time__split+0x90>
  10526c:	e2722000 	rsbs	r2, r2, #0
  105270:	e2e33000 	rsc	r3, r3, #0
  105274:	e5848000 	str	r8, [r4]
  105278:	e1a00004 	mov	r0, r4
  10527c:	e5845004 	str	r5, [r4, #4]
  105280:	e1c420f8 	strd	r2, [r4, #8]
  105284:	e8bd8df0 	pop	{r4, r5, r6, r7, r8, sl, fp, pc}
  105288:	e1a00006 	mov	r0, r6
  10528c:	e1a01007 	mov	r1, r7
  105290:	e28f3018 	add	r3, pc, #24
  105294:	e1c320d0 	ldrd	r2, [r3]
  105298:	fa002b9b 	blx	11010c <__aeabi_uldivmod>
  10529c:	eafffff4 	b	105274 <ada__real_time__split+0x64>
  1052a0:	e3010418 	movw	r0, #5144	; 0x1418
  1052a4:	e3001111 	movw	r1, #273	; 0x111
  1052a8:	e3400011 	movt	r0, #17
  1052ac:	eb001c9a 	bl	10c51c <__gnat_rcheck_CE_Explicit_Raise>
  1052b0:	13d92d40 	bicsne	r2, r9, #64, 26	; 0x1000
  1052b4:	00000000 	andeq	r0, r0, r0

001052b8 <ada__real_time__time_of>:
  1052b8:	e3520000 	cmp	r2, #0
  1052bc:	e92d4ff0 	push	{r4, r5, r6, r7, r8, r9, sl, fp, lr}
  1052c0:	e1a09001 	mov	r9, r1
  1052c4:	e2d31000 	sbcs	r1, r3, #0
  1052c8:	e24dd004 	sub	sp, sp, #4
  1052cc:	e1a08000 	mov	r8, r0
  1052d0:	ba00000b 	blt	105304 <ada__real_time__time_of+0x4c>
  1052d4:	e28f1f4d 	add	r1, pc, #308	; 0x134
  1052d8:	e1c100d0 	ldrd	r0, [r1]
  1052dc:	e1590001 	cmp	r9, r1
  1052e0:	01580000 	cmpeq	r8, r0
  1052e4:	8a000041 	bhi	1053f0 <ada__real_time__time_of+0x138>
  1052e8:	e3a0cdb5 	mov	ip, #11584	; 0x2d40
  1052ec:	e341c3d9 	movt	ip, #5081	; 0x13d9
  1052f0:	e0810c98 	umull	r0, r1, r8, ip
  1052f4:	e021199c 	mla	r1, ip, r9, r1
  1052f8:	e28dd004 	add	sp, sp, #4
  1052fc:	e8bd4ff0 	pop	{r4, r5, r6, r7, r8, r9, sl, fp, lr}
  105300:	eafffe26 	b	104ba0 <ada__real_time__Oadd>
  105304:	e1a06002 	mov	r6, r2
  105308:	e1a07003 	mov	r7, r3
  10530c:	e1a00006 	mov	r0, r6
  105310:	e28f3c01 	add	r3, pc, #256	; 0x100
  105314:	e1c320d0 	ldrd	r2, [r3]
  105318:	e1a01007 	mov	r1, r7
  10531c:	e3a05000 	mov	r5, #0
  105320:	fa002b51 	blx	11006c <__aeabi_ldivmod>
  105324:	e1923003 	orrs	r3, r2, r3
  105328:	e1a00006 	mov	r0, r6
  10532c:	e28f30e4 	add	r3, pc, #228	; 0xe4
  105330:	e1c320d0 	ldrd	r2, [r3]
  105334:	13a04001 	movne	r4, #1
  105338:	03a04000 	moveq	r4, #0
  10533c:	e1a01007 	mov	r1, r7
  105340:	fa002b49 	blx	11006c <__aeabi_ldivmod>
  105344:	e3a0cdb5 	mov	ip, #11584	; 0x2d40
  105348:	e0544000 	subs	r4, r4, r0
  10534c:	e0c55001 	sbc	r5, r5, r1
  105350:	e341c3d9 	movt	ip, #5081	; 0x13d9
  105354:	e2542001 	subs	r2, r4, #1
  105358:	e3a0a000 	mov	sl, #0
  10535c:	e0810c92 	umull	r0, r1, r2, ip
  105360:	e2c53000 	sbc	r3, r5, #0
  105364:	e3a0b000 	mov	fp, #0
  105368:	e021139c 	mla	r1, ip, r3, r1
  10536c:	e0962000 	adds	r2, r6, r0
  105370:	e0b73001 	adcs	r3, r7, r1
  105374:	63a0a001 	movvs	sl, #1
  105378:	63a0b000 	movvs	fp, #0
  10537c:	e19a100b 	orrs	r1, sl, fp
  105380:	1a00001e 	bne	105400 <ada__real_time__time_of+0x148>
  105384:	e28f108c 	add	r1, pc, #140	; 0x8c
  105388:	e1c100d0 	ldrd	r0, [r1]
  10538c:	ebfffe03 	bl	104ba0 <ada__real_time__Oadd>
  105390:	e1580004 	cmp	r8, r4
  105394:	e0d93005 	sbcs	r3, r9, r5
  105398:	ba000010 	blt	1053e0 <ada__real_time__time_of+0x128>
  10539c:	e28f306c 	add	r3, pc, #108	; 0x6c
  1053a0:	e1c320d0 	ldrd	r2, [r3]
  1053a4:	e0584004 	subs	r4, r8, r4
  1053a8:	e0c95005 	sbc	r5, r9, r5
  1053ac:	e1520004 	cmp	r2, r4
  1053b0:	e0d33005 	sbcs	r3, r3, r5
  1053b4:	ba000009 	blt	1053e0 <ada__real_time__time_of+0x128>
  1053b8:	e3a0cdb5 	mov	ip, #11584	; 0x2d40
  1053bc:	e341c3d9 	movt	ip, #5081	; 0x13d9
  1053c0:	e0832c94 	umull	r2, r3, r4, ip
  1053c4:	e023359c 	mla	r3, ip, r5, r3
  1053c8:	e0904002 	adds	r4, r0, r2
  1053cc:	e1a00004 	mov	r0, r4
  1053d0:	e0a15003 	adc	r5, r1, r3
  1053d4:	e1a01005 	mov	r1, r5
  1053d8:	e28dd004 	add	sp, sp, #4
  1053dc:	e8bd8ff0 	pop	{r4, r5, r6, r7, r8, r9, sl, fp, pc}
  1053e0:	e3010418 	movw	r0, #5144	; 0x1418
  1053e4:	e3001243 	movw	r1, #579	; 0x243
  1053e8:	e3400011 	movt	r0, #17
  1053ec:	eb001c4a 	bl	10c51c <__gnat_rcheck_CE_Explicit_Raise>
  1053f0:	e3010418 	movw	r0, #5144	; 0x1418
  1053f4:	e3a01f93 	mov	r1, #588	; 0x24c
  1053f8:	e3400011 	movt	r0, #17
  1053fc:	eb001c46 	bl	10c51c <__gnat_rcheck_CE_Explicit_Raise>
  105400:	e3010418 	movw	r0, #5144	; 0x1418
  105404:	e3a010db 	mov	r1, #219	; 0xdb
  105408:	e3400011 	movt	r0, #17
  10540c:	eb001c60 	bl	10c594 <__gnat_rcheck_CE_Overflow_Check>
  105410:	e5d63348 	ldrb	r3, [r6, #840]	; 0x348
  105414:	0000000c 	andeq	r0, r0, ip
  105418:	13d92d40 	bicsne	r2, r9, #64, 26	; 0x1000
  10541c:	00000000 	andeq	r0, r0, r0

00105420 <ada__real_time__to_duration>:
  105420:	e3a03db5 	mov	r3, #11584	; 0x2d40
  105424:	e3a02cca 	mov	r2, #51712	; 0xca00
  105428:	e34133d9 	movt	r3, #5081	; 0x13d9
  10542c:	e3432b9a 	movt	r2, #15258	; 0x3b9a
  105430:	eafffee6 	b	104fd0 <ada__real_time__mul_div>

00105434 <ada__real_time__to_time_span>:
  105434:	e3a03cca 	mov	r3, #51712	; 0xca00
  105438:	e3a02db5 	mov	r2, #11584	; 0x2d40
  10543c:	e3433b9a 	movt	r3, #15258	; 0x3b9a
  105440:	e34123d9 	movt	r2, #5081	; 0x13d9
  105444:	eafffee1 	b	104fd0 <ada__real_time__mul_div>

00105448 <ada__real_time___elabb>:
  105448:	ea001011 	b	109494 <system__tasking__initialize>

0010544c <ada__real_time__delays__delay_until>:
  10544c:	e92d40d0 	push	{r4, r6, r7, lr}
  105450:	e1a06000 	mov	r6, r0
  105454:	e1a07001 	mov	r7, r1
  105458:	e3034524 	movw	r4, #13604	; 0x3524
  10545c:	e3404011 	movt	r4, #17
  105460:	eb0007cd 	bl	10739c <system__bb__board_support__multiprocessors__mpidr>
  105464:	e2000003 	and	r0, r0, #3
  105468:	e2800101 	add	r0, r0, #1073741824	; 0x40000000
  10546c:	e7943100 	ldr	r3, [r4, r0, lsl #2]
  105470:	e59330a8 	ldr	r3, [r3, #168]	; 0xa8
  105474:	e5933010 	ldr	r3, [r3, #16]
  105478:	e3530000 	cmp	r3, #0
  10547c:	ca00000c 	bgt	1054b4 <ada__real_time__delays__delay_until+0x68>
  105480:	eb0007c5 	bl	10739c <system__bb__board_support__multiprocessors__mpidr>
  105484:	e2000003 	and	r0, r0, #3
  105488:	e3a02007 	mov	r2, #7
  10548c:	e2803101 	add	r3, r0, #1073741824	; 0x40000000
  105490:	e1a01007 	mov	r1, r7
  105494:	e7943103 	ldr	r3, [r4, r3, lsl #2]
  105498:	e1a00006 	mov	r0, r6
  10549c:	e59340a8 	ldr	r4, [r3, #168]	; 0xa8
  1054a0:	e5c42008 	strb	r2, [r4, #8]
  1054a4:	eb000b2c 	bl	10815c <system__bb__time__delay_until>
  1054a8:	e3a03001 	mov	r3, #1
  1054ac:	e5c43008 	strb	r3, [r4, #8]
  1054b0:	e8bd80d0 	pop	{r4, r6, r7, pc}
  1054b4:	e3010468 	movw	r0, #5224	; 0x1468
  1054b8:	e3a01033 	mov	r1, #51	; 0x33
  1054bc:	e3400011 	movt	r0, #17
  1054c0:	eb001c6b 	bl	10c674 <__gnat_rcheck_PE_Explicit_Raise>

001054c4 <ada__real_time__delays__to_duration>:
  1054c4:	e3a00000 	mov	r0, #0
  1054c8:	e3a01000 	mov	r1, #0
  1054cc:	e12fff1e 	bx	lr

001054d0 <ada__tags__htable_subprograms__hashXn>:
  1054d0:	e92d4010 	push	{r4, lr}
  1054d4:	e5d04000 	ldrb	r4, [r0]
  1054d8:	e3540000 	cmp	r4, #0
  1054dc:	0a000014 	beq	105534 <ada__tags__htable_subprograms__hashXn+0x64>
  1054e0:	e1a01000 	mov	r1, r0
  1054e4:	e3a0c001 	mov	ip, #1
  1054e8:	ea000000 	b	1054f0 <ada__tags__htable_subprograms__hashXn+0x20>
  1054ec:	e1a0c00e 	mov	ip, lr
  1054f0:	e5f13001 	ldrb	r3, [r1, #1]!
  1054f4:	e28ce001 	add	lr, ip, #1
  1054f8:	e3530000 	cmp	r3, #0
  1054fc:	1afffffa 	bne	1054ec <ada__tags__htable_subprograms__hashXn+0x1c>
  105500:	e2402001 	sub	r2, r0, #1
  105504:	e082c00c 	add	ip, r2, ip
  105508:	ea000000 	b	105510 <ada__tags__htable_subprograms__hashXn+0x40>
  10550c:	e5f04001 	ldrb	r4, [r0, #1]!
  105510:	e1a02803 	lsl	r2, r3, #16
  105514:	e150000c 	cmp	r0, ip
  105518:	e0822303 	add	r2, r2, r3, lsl #6
  10551c:	e0822004 	add	r2, r2, r4
  105520:	e0423003 	sub	r3, r2, r3
  105524:	1afffff8 	bne	10550c <ada__tags__htable_subprograms__hashXn+0x3c>
  105528:	e203003f 	and	r0, r3, #63	; 0x3f
  10552c:	e2800001 	add	r0, r0, #1
  105530:	e8bd8010 	pop	{r4, pc}
  105534:	e3a00001 	mov	r0, #1
  105538:	e8bd8010 	pop	{r4, pc}

0010553c <ada__tags__tag_arrayIP>:
  10553c:	e591c000 	ldr	ip, [r1]
  105540:	e5911004 	ldr	r1, [r1, #4]
  105544:	e15c0001 	cmp	ip, r1
  105548:	c12fff1e 	bxgt	lr
  10554c:	e52de004 	push	{lr}		; (str lr, [sp, #-4]!)
  105550:	e24c3001 	sub	r3, ip, #1
  105554:	e3a0e000 	mov	lr, #0
  105558:	e2833001 	add	r3, r3, #1
  10555c:	e1510003 	cmp	r1, r3
  105560:	e043200c 	sub	r2, r3, ip
  105564:	e780e102 	str	lr, [r0, r2, lsl #2]
  105568:	1afffffa 	bne	105558 <ada__tags__tag_arrayIP+0x1c>
  10556c:	e49df004 	pop	{pc}		; (ldr pc, [sp], #4)

00105570 <ada__tags__interface_data_elementIP>:
  105570:	e3a03000 	mov	r3, #0
  105574:	e580300c 	str	r3, [r0, #12]
  105578:	e12fff1e 	bx	lr

0010557c <ada__tags__interfaces_arrayIP>:
  10557c:	e591c000 	ldr	ip, [r1]
  105580:	e5911004 	ldr	r1, [r1, #4]
  105584:	e15c0001 	cmp	ip, r1
  105588:	c12fff1e 	bxgt	lr
  10558c:	e52de004 	push	{lr}		; (str lr, [sp, #-4]!)
  105590:	e24c2001 	sub	r2, ip, #1
  105594:	e3a0e000 	mov	lr, #0
  105598:	e2822001 	add	r2, r2, #1
  10559c:	e042300c 	sub	r3, r2, ip
  1055a0:	e1510002 	cmp	r1, r2
  1055a4:	e0833103 	add	r3, r3, r3, lsl #2
  1055a8:	e0803103 	add	r3, r0, r3, lsl #2
  1055ac:	e583e00c 	str	lr, [r3, #12]
  1055b0:	1afffff8 	bne	105598 <ada__tags__interfaces_arrayIP+0x1c>
  1055b4:	e49df004 	pop	{pc}		; (ldr pc, [sp], #4)

001055b8 <ada__tags__interface_dataIP>:
  1055b8:	e3510000 	cmp	r1, #0
  1055bc:	e5801000 	str	r1, [r0]
  1055c0:	d12fff1e 	bxle	lr
  1055c4:	e3a03000 	mov	r3, #0
  1055c8:	e1a0c003 	mov	ip, r3
  1055cc:	e2833001 	add	r3, r3, #1
  1055d0:	e0832103 	add	r2, r3, r3, lsl #2
  1055d4:	e1510003 	cmp	r1, r3
  1055d8:	e0802102 	add	r2, r0, r2, lsl #2
  1055dc:	e502c004 	str	ip, [r2, #-4]
  1055e0:	1afffff9 	bne	1055cc <ada__tags__interface_dataIP+0x14>
  1055e4:	e12fff1e 	bx	lr

001055e8 <ada__tags__select_specific_data_elementIP>:
  1055e8:	e12fff1e 	bx	lr

001055ec <ada__tags__select_specific_data_arrayIP>:
  1055ec:	e12fff1e 	bx	lr

001055f0 <ada__tags__select_specific_dataIP>:
  1055f0:	e5801000 	str	r1, [r0]
  1055f4:	e12fff1e 	bx	lr

001055f8 <ada__tags__address_arrayIP>:
  1055f8:	e591c000 	ldr	ip, [r1]
  1055fc:	e5911004 	ldr	r1, [r1, #4]
  105600:	e15c0001 	cmp	ip, r1
  105604:	c12fff1e 	bxgt	lr
  105608:	e52de004 	push	{lr}		; (str lr, [sp, #-4]!)
  10560c:	e24c3001 	sub	r3, ip, #1
  105610:	e3a0e000 	mov	lr, #0
  105614:	e2833001 	add	r3, r3, #1
  105618:	e1510003 	cmp	r1, r3
  10561c:	e043200c 	sub	r2, r3, ip
  105620:	e780e102 	str	lr, [r0, r2, lsl #2]
  105624:	1afffffa 	bne	105614 <ada__tags__address_arrayIP+0x1c>
  105628:	e49df004 	pop	{pc}		; (ldr pc, [sp], #4)

0010562c <ada__tags__tag_tableIP>:
  10562c:	e591c000 	ldr	ip, [r1]
  105630:	e5911004 	ldr	r1, [r1, #4]
  105634:	e15c0001 	cmp	ip, r1
  105638:	c12fff1e 	bxgt	lr
  10563c:	e52de004 	push	{lr}		; (str lr, [sp, #-4]!)
  105640:	e24c3001 	sub	r3, ip, #1
  105644:	e3a0e000 	mov	lr, #0
  105648:	e2833001 	add	r3, r3, #1
  10564c:	e1510003 	cmp	r1, r3
  105650:	e043200c 	sub	r2, r3, ip
  105654:	e780e102 	str	lr, [r0, r2, lsl #2]
  105658:	1afffffa 	bne	105648 <ada__tags__tag_tableIP+0x1c>
  10565c:	e49df004 	pop	{pc}		; (ldr pc, [sp], #4)

00105660 <ada__tags__type_specific_dataIP>:
  105660:	e3a03000 	mov	r3, #0
  105664:	e3510000 	cmp	r1, #0
  105668:	e5801000 	str	r1, [r0]
  10566c:	e580300c 	str	r3, [r0, #12]
  105670:	e5803010 	str	r3, [r0, #16]
  105674:	e5803014 	str	r3, [r0, #20]
  105678:	e580301c 	str	r3, [r0, #28]
  10567c:	e5803020 	str	r3, [r0, #32]
  105680:	e5803024 	str	r3, [r0, #36]	; 0x24
  105684:	b12fff1e 	bxlt	lr
  105688:	e2800024 	add	r0, r0, #36	; 0x24
  10568c:	e2811001 	add	r1, r1, #1
  105690:	e1a02003 	mov	r2, r3
  105694:	e2833001 	add	r3, r3, #1
  105698:	e5a02004 	str	r2, [r0, #4]!
  10569c:	e1530001 	cmp	r3, r1
  1056a0:	1afffffb 	bne	105694 <ada__tags__type_specific_dataIP+0x34>
  1056a4:	e12fff1e 	bx	lr

001056a8 <ada__tags__dispatch_table_wrapperIP>:
  1056a8:	e3510000 	cmp	r1, #0
  1056ac:	e5801000 	str	r1, [r0]
  1056b0:	d12fff1e 	bxle	lr
  1056b4:	e3a03000 	mov	r3, #0
  1056b8:	e2800010 	add	r0, r0, #16
  1056bc:	e1a02003 	mov	r2, r3
  1056c0:	e2833001 	add	r3, r3, #1
  1056c4:	e5a02004 	str	r2, [r0, #4]!
  1056c8:	e1530001 	cmp	r3, r1
  1056cc:	1afffffb 	bne	1056c0 <ada__tags__dispatch_table_wrapperIP+0x18>
  1056d0:	e12fff1e 	bx	lr

001056d4 <ada__tags__no_dispatch_table_wrapperIP>:
  1056d4:	e12fff1e 	bx	lr

001056d8 <ada__tags__object_specific_data_arrayIP>:
  1056d8:	e12fff1e 	bx	lr

001056dc <ada__tags__object_specific_dataIP>:
  1056dc:	e5801000 	str	r1, [r0]
  1056e0:	e12fff1e 	bx	lr

001056e4 <ada__tags__external_tag_htable__TtableBIPXn>:
  1056e4:	e1d1c0d0 	ldrsb	ip, [r1]
  1056e8:	e1d110d1 	ldrsb	r1, [r1, #1]
  1056ec:	e15c0001 	cmp	ip, r1
  1056f0:	c12fff1e 	bxgt	lr
  1056f4:	e24c3001 	sub	r3, ip, #1
  1056f8:	e041100c 	sub	r1, r1, ip
  1056fc:	e6af3073 	sxtb	r3, r3
  105700:	e6ef2071 	uxtb	r2, r1
  105704:	e2831002 	add	r1, r3, #2
  105708:	e52de004 	push	{lr}		; (str lr, [sp, #-4]!)
  10570c:	e2833001 	add	r3, r3, #1
  105710:	e0811002 	add	r1, r1, r2
  105714:	e3a0e000 	mov	lr, #0
  105718:	e043200c 	sub	r2, r3, ip
  10571c:	e2833001 	add	r3, r3, #1
  105720:	e1530001 	cmp	r3, r1
  105724:	e780e102 	str	lr, [r0, r2, lsl #2]
  105728:	1afffffa 	bne	105718 <ada__tags__external_tag_htable__TtableBIPXn+0x34>
  10572c:	e49df004 	pop	{pc}		; (ldr pc, [sp], #4)

00105730 <ada__tags__external_tag_htable__getXn>:
  105730:	e92d4070 	push	{r4, r5, r6, lr}
  105734:	e1a05000 	mov	r5, r0
  105738:	ebffff64 	bl	1054d0 <ada__tags__htable_subprograms__hashXn>
  10573c:	e301355c 	movw	r3, #5468	; 0x155c
  105740:	e2400107 	sub	r0, r0, #-1073741823	; 0xc0000001
  105744:	e3403012 	movt	r3, #18
  105748:	e7930100 	ldr	r0, [r3, r0, lsl #2]
  10574c:	e3500000 	cmp	r0, #0
  105750:	08bd8070 	popeq	{r4, r5, r6, pc}
  105754:	e5d54000 	ldrb	r4, [r5]
  105758:	e510e004 	ldr	lr, [r0, #-4]
  10575c:	e59e2010 	ldr	r2, [lr, #16]
  105760:	e5d23000 	ldrb	r3, [r2]
  105764:	e1530004 	cmp	r3, r4
  105768:	1a000009 	bne	105794 <ada__tags__external_tag_htable__getXn+0x64>
  10576c:	e3540000 	cmp	r4, #0
  105770:	08bd8070 	popeq	{r4, r5, r6, pc}
  105774:	e1a01005 	mov	r1, r5
  105778:	ea000001 	b	105784 <ada__tags__external_tag_htable__getXn+0x54>
  10577c:	e3530000 	cmp	r3, #0
  105780:	08bd8070 	popeq	{r4, r5, r6, pc}
  105784:	e5f2c001 	ldrb	ip, [r2, #1]!
  105788:	e5f13001 	ldrb	r3, [r1, #1]!
  10578c:	e153000c 	cmp	r3, ip
  105790:	0afffff9 	beq	10577c <ada__tags__external_tag_htable__getXn+0x4c>
  105794:	e59e3014 	ldr	r3, [lr, #20]
  105798:	e5930000 	ldr	r0, [r3]
  10579c:	e3500000 	cmp	r0, #0
  1057a0:	1affffec 	bne	105758 <ada__tags__external_tag_htable__getXn+0x28>
  1057a4:	e8bd8070 	pop	{r4, r5, r6, pc}

001057a8 <ada__tags__external_tag_htable__get_firstXn>:
  1057a8:	e301255c 	movw	r2, #5468	; 0x155c
  1057ac:	e92d4010 	push	{r4, lr}
  1057b0:	e3402012 	movt	r2, #18
  1057b4:	e303c4fc 	movw	ip, #13564	; 0x34fc
  1057b8:	e3034500 	movw	r4, #13568	; 0x3500
  1057bc:	e301e558 	movw	lr, #5464	; 0x1558
  1057c0:	e5920000 	ldr	r0, [r2]
  1057c4:	e3a03001 	mov	r3, #1
  1057c8:	e340c011 	movt	ip, #17
  1057cc:	e3404011 	movt	r4, #17
  1057d0:	e340e012 	movt	lr, #18
  1057d4:	e5c43000 	strb	r3, [r4]
  1057d8:	e3500000 	cmp	r0, #0
  1057dc:	e58c0000 	str	r0, [ip]
  1057e0:	e5ce3000 	strb	r3, [lr]
  1057e4:	18bd8010 	popne	{r4, pc}
  1057e8:	e3a03002 	mov	r3, #2
  1057ec:	ea000001 	b	1057f8 <ada__tags__external_tag_htable__get_firstXn+0x50>
  1057f0:	e3530041 	cmp	r3, #65	; 0x41
  1057f4:	0a000007 	beq	105818 <ada__tags__external_tag_htable__get_firstXn+0x70>
  1057f8:	e5b20004 	ldr	r0, [r2, #4]!
  1057fc:	e6af1073 	sxtb	r1, r3
  105800:	e2833001 	add	r3, r3, #1
  105804:	e3500000 	cmp	r0, #0
  105808:	0afffff8 	beq	1057f0 <ada__tags__external_tag_htable__get_firstXn+0x48>
  10580c:	e5ce1000 	strb	r1, [lr]
  105810:	e58c0000 	str	r0, [ip]
  105814:	e8bd8010 	pop	{r4, pc}
  105818:	e5ce1000 	strb	r1, [lr]
  10581c:	e58c0000 	str	r0, [ip]
  105820:	e5c40000 	strb	r0, [r4]
  105824:	e8bd8010 	pop	{r4, pc}

00105828 <ada__tags__external_tag_htable__get_nextXn>:
  105828:	e92d4010 	push	{r4, lr}
  10582c:	e303e500 	movw	lr, #13568	; 0x3500
  105830:	e340e011 	movt	lr, #17
  105834:	e5de0000 	ldrb	r0, [lr]
  105838:	e3500000 	cmp	r0, #0
  10583c:	08bd8010 	popeq	{r4, pc}
  105840:	e303c4fc 	movw	ip, #13564	; 0x34fc
  105844:	e340c011 	movt	ip, #17
  105848:	e59c3000 	ldr	r3, [ip]
  10584c:	e5133004 	ldr	r3, [r3, #-4]
  105850:	e5933014 	ldr	r3, [r3, #20]
  105854:	e5930000 	ldr	r0, [r3]
  105858:	e3500000 	cmp	r0, #0
  10585c:	e58c0000 	str	r0, [ip]
  105860:	18bd8010 	popne	{r4, pc}
  105864:	e3014558 	movw	r4, #5464	; 0x1558
  105868:	e3404012 	movt	r4, #18
  10586c:	e1d430d0 	ldrsb	r3, [r4]
  105870:	e3530040 	cmp	r3, #64	; 0x40
  105874:	0a000011 	beq	1058c0 <ada__tags__external_tag_htable__get_nextXn+0x98>
  105878:	e301255c 	movw	r2, #5468	; 0x155c
  10587c:	e3402012 	movt	r2, #18
  105880:	e0822103 	add	r2, r2, r3, lsl #2
  105884:	e2422004 	sub	r2, r2, #4
  105888:	ea000001 	b	105894 <ada__tags__external_tag_htable__get_nextXn+0x6c>
  10588c:	e3530040 	cmp	r3, #64	; 0x40
  105890:	0a000008 	beq	1058b8 <ada__tags__external_tag_htable__get_nextXn+0x90>
  105894:	e5b21004 	ldr	r1, [r2, #4]!
  105898:	e2833001 	add	r3, r3, #1
  10589c:	e6af3073 	sxtb	r3, r3
  1058a0:	e3510000 	cmp	r1, #0
  1058a4:	0afffff8 	beq	10588c <ada__tags__external_tag_htable__get_nextXn+0x64>
  1058a8:	e5c43000 	strb	r3, [r4]
  1058ac:	e1a00001 	mov	r0, r1
  1058b0:	e58c1000 	str	r1, [ip]
  1058b4:	e8bd8010 	pop	{r4, pc}
  1058b8:	e5c43000 	strb	r3, [r4]
  1058bc:	e58c1000 	str	r1, [ip]
  1058c0:	e3a03000 	mov	r3, #0
  1058c4:	e5ce3000 	strb	r3, [lr]
  1058c8:	e8bd8010 	pop	{r4, pc}

001058cc <ada__tags__external_tag_htable__get_non_nullXn>:
  1058cc:	e303c4fc 	movw	ip, #13564	; 0x34fc
  1058d0:	e340c011 	movt	ip, #17
  1058d4:	e59c0000 	ldr	r0, [ip]
  1058d8:	e3500000 	cmp	r0, #0
  1058dc:	112fff1e 	bxne	lr
  1058e0:	e52de004 	push	{lr}		; (str lr, [sp, #-4]!)
  1058e4:	e301e558 	movw	lr, #5464	; 0x1558
  1058e8:	e340e012 	movt	lr, #18
  1058ec:	e1de30d0 	ldrsb	r3, [lr]
  1058f0:	e3530040 	cmp	r3, #64	; 0x40
  1058f4:	0a000011 	beq	105940 <ada__tags__external_tag_htable__get_non_nullXn+0x74>
  1058f8:	e301255c 	movw	r2, #5468	; 0x155c
  1058fc:	e3402012 	movt	r2, #18
  105900:	e0822103 	add	r2, r2, r3, lsl #2
  105904:	e2422004 	sub	r2, r2, #4
  105908:	ea000001 	b	105914 <ada__tags__external_tag_htable__get_non_nullXn+0x48>
  10590c:	e3530040 	cmp	r3, #64	; 0x40
  105910:	0a000008 	beq	105938 <ada__tags__external_tag_htable__get_non_nullXn+0x6c>
  105914:	e5b21004 	ldr	r1, [r2, #4]!
  105918:	e2833001 	add	r3, r3, #1
  10591c:	e6af3073 	sxtb	r3, r3
  105920:	e3510000 	cmp	r1, #0
  105924:	0afffff8 	beq	10590c <ada__tags__external_tag_htable__get_non_nullXn+0x40>
  105928:	e1a00001 	mov	r0, r1
  10592c:	e5ce3000 	strb	r3, [lr]
  105930:	e58c1000 	str	r1, [ip]
  105934:	e49df004 	pop	{pc}		; (ldr pc, [sp], #4)
  105938:	e5ce3000 	strb	r3, [lr]
  10593c:	e58c1000 	str	r1, [ip]
  105940:	e3033500 	movw	r3, #13568	; 0x3500
  105944:	e3a02000 	mov	r2, #0
  105948:	e3403011 	movt	r3, #17
  10594c:	e5c32000 	strb	r2, [r3]
  105950:	e49df004 	pop	{pc}		; (ldr pc, [sp], #4)

00105954 <ada__tags__external_tag_htable__presentXn>:
  105954:	e92d4010 	push	{r4, lr}
  105958:	ebffff74 	bl	105730 <ada__tags__external_tag_htable__getXn>
  10595c:	e2900000 	adds	r0, r0, #0
  105960:	13a00001 	movne	r0, #1
  105964:	e8bd8010 	pop	{r4, pc}

00105968 <ada__tags__external_tag_htable__removeXn>:
  105968:	e92d4070 	push	{r4, r5, r6, lr}
  10596c:	e301655c 	movw	r6, #5468	; 0x155c
  105970:	e1a04000 	mov	r4, r0
  105974:	e3406012 	movt	r6, #18
  105978:	ebfffed4 	bl	1054d0 <ada__tags__htable_subprograms__hashXn>
  10597c:	e2400107 	sub	r0, r0, #-1073741823	; 0xc0000001
  105980:	e7963100 	ldr	r3, [r6, r0, lsl #2]
  105984:	e3530000 	cmp	r3, #0
  105988:	08bd8070 	popeq	{r4, r5, r6, pc}
  10598c:	e513c004 	ldr	ip, [r3, #-4]
  105990:	e5d45000 	ldrb	r5, [r4]
  105994:	e59c2010 	ldr	r2, [ip, #16]
  105998:	e5d23000 	ldrb	r3, [r2]
  10599c:	e1530005 	cmp	r3, r5
  1059a0:	1a000009 	bne	1059cc <ada__tags__external_tag_htable__removeXn+0x64>
  1059a4:	e3550000 	cmp	r5, #0
  1059a8:	0a00001d 	beq	105a24 <ada__tags__external_tag_htable__removeXn+0xbc>
  1059ac:	e1a01004 	mov	r1, r4
  1059b0:	ea000001 	b	1059bc <ada__tags__external_tag_htable__removeXn+0x54>
  1059b4:	e3530000 	cmp	r3, #0
  1059b8:	0a000019 	beq	105a24 <ada__tags__external_tag_htable__removeXn+0xbc>
  1059bc:	e5f2e001 	ldrb	lr, [r2, #1]!
  1059c0:	e5f13001 	ldrb	r3, [r1, #1]!
  1059c4:	e153000e 	cmp	r3, lr
  1059c8:	0afffff9 	beq	1059b4 <ada__tags__external_tag_htable__removeXn+0x4c>
  1059cc:	e59ce014 	ldr	lr, [ip, #20]
  1059d0:	e59e3000 	ldr	r3, [lr]
  1059d4:	e3530000 	cmp	r3, #0
  1059d8:	08bd8070 	popeq	{r4, r5, r6, pc}
  1059dc:	e513c004 	ldr	ip, [r3, #-4]
  1059e0:	e59c2010 	ldr	r2, [ip, #16]
  1059e4:	e5d23000 	ldrb	r3, [r2]
  1059e8:	e1530005 	cmp	r3, r5
  1059ec:	1afffff6 	bne	1059cc <ada__tags__external_tag_htable__removeXn+0x64>
  1059f0:	e3550000 	cmp	r5, #0
  1059f4:	0a000006 	beq	105a14 <ada__tags__external_tag_htable__removeXn+0xac>
  1059f8:	e1a01004 	mov	r1, r4
  1059fc:	e5f20001 	ldrb	r0, [r2, #1]!
  105a00:	e5f13001 	ldrb	r3, [r1, #1]!
  105a04:	e1530000 	cmp	r3, r0
  105a08:	1affffef 	bne	1059cc <ada__tags__external_tag_htable__removeXn+0x64>
  105a0c:	e3530000 	cmp	r3, #0
  105a10:	1afffff9 	bne	1059fc <ada__tags__external_tag_htable__removeXn+0x94>
  105a14:	e59c3014 	ldr	r3, [ip, #20]
  105a18:	e5933000 	ldr	r3, [r3]
  105a1c:	e58e3000 	str	r3, [lr]
  105a20:	e8bd8070 	pop	{r4, r5, r6, pc}
  105a24:	e59c3014 	ldr	r3, [ip, #20]
  105a28:	e5933000 	ldr	r3, [r3]
  105a2c:	e7863100 	str	r3, [r6, r0, lsl #2]
  105a30:	e8bd8070 	pop	{r4, r5, r6, pc}

00105a34 <ada__tags__external_tag_htable__resetXn>:
  105a34:	e301055c 	movw	r0, #5468	; 0x155c
  105a38:	e92d4010 	push	{r4, lr}
  105a3c:	e3a02c01 	mov	r2, #256	; 0x100
  105a40:	e3a01000 	mov	r1, #0
  105a44:	e3400012 	movt	r0, #18
  105a48:	fa002707 	blx	10f66c <memset>
  105a4c:	e8bd8010 	pop	{r4, pc}

00105a50 <ada__tags__external_tag_htable__setXn>:
  105a50:	e92d4070 	push	{r4, r5, r6, lr}
  105a54:	e1a04000 	mov	r4, r0
  105a58:	e5105004 	ldr	r5, [r0, #-4]
  105a5c:	e5950010 	ldr	r0, [r5, #16]
  105a60:	ebfffe9a 	bl	1054d0 <ada__tags__htable_subprograms__hashXn>
  105a64:	e301355c 	movw	r3, #5468	; 0x155c
  105a68:	e2400107 	sub	r0, r0, #-1073741823	; 0xc0000001
  105a6c:	e3403012 	movt	r3, #18
  105a70:	e5952014 	ldr	r2, [r5, #20]
  105a74:	e7931100 	ldr	r1, [r3, r0, lsl #2]
  105a78:	e5821000 	str	r1, [r2]
  105a7c:	e7834100 	str	r4, [r3, r0, lsl #2]
  105a80:	e8bd8070 	pop	{r4, r5, r6, pc}

00105a84 <ada__tags__external_tag_htable__set_if_not_presentXn>:
  105a84:	e92d47f0 	push	{r4, r5, r6, r7, r8, r9, sl, lr}
  105a88:	e1a07000 	mov	r7, r0
  105a8c:	e5106004 	ldr	r6, [r0, #-4]
  105a90:	e301855c 	movw	r8, #5468	; 0x155c
  105a94:	e3408012 	movt	r8, #18
  105a98:	e5965010 	ldr	r5, [r6, #16]
  105a9c:	e1a00005 	mov	r0, r5
  105aa0:	ebfffe8a 	bl	1054d0 <ada__tags__htable_subprograms__hashXn>
  105aa4:	e240a107 	sub	sl, r0, #-1073741823	; 0xc0000001
  105aa8:	e798910a 	ldr	r9, [r8, sl, lsl #2]
  105aac:	e3590000 	cmp	r9, #0
  105ab0:	15d54000 	ldrbne	r4, [r5]
  105ab4:	11a03009 	movne	r3, r9
  105ab8:	0a000012 	beq	105b08 <ada__tags__external_tag_htable__set_if_not_presentXn+0x84>
  105abc:	e513e004 	ldr	lr, [r3, #-4]
  105ac0:	e59e2010 	ldr	r2, [lr, #16]
  105ac4:	e5d23000 	ldrb	r3, [r2]
  105ac8:	e1530004 	cmp	r3, r4
  105acc:	1a000009 	bne	105af8 <ada__tags__external_tag_htable__set_if_not_presentXn+0x74>
  105ad0:	e3540000 	cmp	r4, #0
  105ad4:	0a000010 	beq	105b1c <ada__tags__external_tag_htable__set_if_not_presentXn+0x98>
  105ad8:	e1a01005 	mov	r1, r5
  105adc:	ea000001 	b	105ae8 <ada__tags__external_tag_htable__set_if_not_presentXn+0x64>
  105ae0:	e3530000 	cmp	r3, #0
  105ae4:	0a00000c 	beq	105b1c <ada__tags__external_tag_htable__set_if_not_presentXn+0x98>
  105ae8:	e5f2c001 	ldrb	ip, [r2, #1]!
  105aec:	e5f13001 	ldrb	r3, [r1, #1]!
  105af0:	e153000c 	cmp	r3, ip
  105af4:	0afffff9 	beq	105ae0 <ada__tags__external_tag_htable__set_if_not_presentXn+0x5c>
  105af8:	e59e3014 	ldr	r3, [lr, #20]
  105afc:	e5933000 	ldr	r3, [r3]
  105b00:	e3530000 	cmp	r3, #0
  105b04:	1affffec 	bne	105abc <ada__tags__external_tag_htable__set_if_not_presentXn+0x38>
  105b08:	e5963014 	ldr	r3, [r6, #20]
  105b0c:	e3a00001 	mov	r0, #1
  105b10:	e5839000 	str	r9, [r3]
  105b14:	e788710a 	str	r7, [r8, sl, lsl #2]
  105b18:	e8bd87f0 	pop	{r4, r5, r6, r7, r8, r9, sl, pc}
  105b1c:	e3a00000 	mov	r0, #0
  105b20:	e8bd87f0 	pop	{r4, r5, r6, r7, r8, r9, sl, pc}

00105b24 <ada__tags__is_abstract>:
  105b24:	e3500000 	cmp	r0, #0
  105b28:	0a000002 	beq	105b38 <ada__tags__is_abstract+0x14>
  105b2c:	e5103004 	ldr	r3, [r0, #-4]
  105b30:	e5d30019 	ldrb	r0, [r3, #25]
  105b34:	e12fff1e 	bx	lr
  105b38:	e3011570 	movw	r1, #5488	; 0x1570
  105b3c:	e3012478 	movw	r2, #5240	; 0x1478
  105b40:	e3030504 	movw	r0, #13572	; 0x3504
  105b44:	e92d4010 	push	{r4, lr}
  105b48:	e3401011 	movt	r1, #17
  105b4c:	e3402011 	movt	r2, #17
  105b50:	e3400011 	movt	r0, #17
  105b54:	eb001957 	bl	10c0b8 <__gnat_raise_exception>

00105b58 <ada__tags__base_address>:
  105b58:	e5903000 	ldr	r3, [r0]
  105b5c:	e5133008 	ldr	r3, [r3, #-8]
  105b60:	e3730106 	cmn	r3, #-2147483647	; 0x80000001
  105b64:	05903004 	ldreq	r3, [r0, #4]
  105b68:	e0830000 	add	r0, r3, r0
  105b6c:	e12fff1e 	bx	lr

00105b70 <ada__tags__check_tsd>:
  105b70:	e92d4870 	push	{r4, r5, r6, fp, lr}
  105b74:	e28db010 	add	fp, sp, #16
  105b78:	e24dd00c 	sub	sp, sp, #12
  105b7c:	e5906010 	ldr	r6, [r0, #16]
  105b80:	e5d63000 	ldrb	r3, [r6]
  105b84:	e3530000 	cmp	r3, #0
  105b88:	0a00000e 	beq	105bc8 <ada__tags__check_tsd+0x58>
  105b8c:	e1a02006 	mov	r2, r6
  105b90:	e3a03001 	mov	r3, #1
  105b94:	ea000000 	b	105b9c <ada__tags__check_tsd+0x2c>
  105b98:	e1a03005 	mov	r3, r5
  105b9c:	e5f21001 	ldrb	r1, [r2, #1]!
  105ba0:	e2835001 	add	r5, r3, #1
  105ba4:	e3510000 	cmp	r1, #0
  105ba8:	1afffffa 	bne	105b98 <ada__tags__check_tsd+0x28>
  105bac:	e1a04003 	mov	r4, r3
  105bb0:	e1a00006 	mov	r0, r6
  105bb4:	ebfffedd 	bl	105730 <ada__tags__external_tag_htable__getXn>
  105bb8:	e3500000 	cmp	r0, #0
  105bbc:	1a000004 	bne	105bd4 <ada__tags__check_tsd+0x64>
  105bc0:	e24bd010 	sub	sp, fp, #16
  105bc4:	e8bd8870 	pop	{r4, r5, r6, fp, pc}
  105bc8:	e1a04003 	mov	r4, r3
  105bcc:	e3a05001 	mov	r5, #1
  105bd0:	eafffff6 	b	105bb0 <ada__tags__check_tsd+0x40>
  105bd4:	e2853020 	add	r3, r5, #32
  105bd8:	e30114a0 	movw	r1, #5280	; 0x14a0
  105bdc:	e3c33007 	bic	r3, r3, #7
  105be0:	e3a02019 	mov	r2, #25
  105be4:	e04dd003 	sub	sp, sp, r3
  105be8:	e3401011 	movt	r1, #17
  105bec:	e1a0000d 	mov	r0, sp
  105bf0:	e0855002 	add	r5, r5, r2
  105bf4:	fa00262f 	blx	10f4b8 <memcpy>
  105bf8:	e1a02004 	mov	r2, r4
  105bfc:	e1a01006 	mov	r1, r6
  105c00:	e28d0019 	add	r0, sp, #25
  105c04:	fa002666 	blx	10f5a4 <memmove>
  105c08:	e3030624 	movw	r0, #13860	; 0x3624
  105c0c:	e08dc005 	add	ip, sp, r5
  105c10:	e3a0e022 	mov	lr, #34	; 0x22
  105c14:	e3a03001 	mov	r3, #1
  105c18:	e1a0100d 	mov	r1, sp
  105c1c:	e3400011 	movt	r0, #17
  105c20:	e24b201c 	sub	r2, fp, #28
  105c24:	e50b5018 	str	r5, [fp, #-24]	; 0xffffffe8
  105c28:	e54ce001 	strb	lr, [ip, #-1]
  105c2c:	e50b301c 	str	r3, [fp, #-28]	; 0xffffffe4
  105c30:	eb001920 	bl	10c0b8 <__gnat_raise_exception>

00105c34 <ada__tags__displace>:
  105c34:	e3500000 	cmp	r0, #0
  105c38:	e92d4070 	push	{r4, r5, r6, lr}
  105c3c:	0a000029 	beq	105ce8 <ada__tags__displace+0xb4>
  105c40:	e5903000 	ldr	r3, [r0]
  105c44:	e5134008 	ldr	r4, [r3, #-8]
  105c48:	e3740106 	cmn	r4, #-2147483647	; 0x80000001
  105c4c:	05904004 	ldreq	r4, [r0, #4]
  105c50:	e7945000 	ldr	r5, [r4, r0]
  105c54:	e0844000 	add	r4, r4, r0
  105c58:	e5153004 	ldr	r3, [r5, #-4]
  105c5c:	e5930020 	ldr	r0, [r3, #32]
  105c60:	e3500000 	cmp	r0, #0
  105c64:	0a000013 	beq	105cb8 <ada__tags__displace+0x84>
  105c68:	e590e000 	ldr	lr, [r0]
  105c6c:	e3a03000 	mov	r3, #0
  105c70:	ea000001 	b	105c7c <ada__tags__displace+0x48>
  105c74:	e15e0003 	cmp	lr, r3
  105c78:	0a00000e 	beq	105cb8 <ada__tags__displace+0x84>
  105c7c:	e2833001 	add	r3, r3, #1
  105c80:	e0832103 	add	r2, r3, r3, lsl #2
  105c84:	e0802102 	add	r2, r0, r2, lsl #2
  105c88:	e512c010 	ldr	ip, [r2, #-16]
  105c8c:	e15c0001 	cmp	ip, r1
  105c90:	1afffff7 	bne	105c74 <ada__tags__displace+0x40>
  105c94:	e552300c 	ldrb	r3, [r2, #-12]
  105c98:	e3530000 	cmp	r3, #0
  105c9c:	1a000014 	bne	105cf4 <ada__tags__displace+0xc0>
  105ca0:	e5123004 	ldr	r3, [r2, #-4]
  105ca4:	e1a00004 	mov	r0, r4
  105ca8:	e12fff33 	blx	r3
  105cac:	e0444000 	sub	r4, r4, r0
  105cb0:	e1a00004 	mov	r0, r4
  105cb4:	e8bd8070 	pop	{r4, r5, r6, pc}
  105cb8:	e5152004 	ldr	r2, [r5, #-4]
  105cbc:	e5110004 	ldr	r0, [r1, #-4]
  105cc0:	e5923000 	ldr	r3, [r2]
  105cc4:	e5900000 	ldr	r0, [r0]
  105cc8:	e0533000 	subs	r3, r3, r0
  105ccc:	4a00000b 	bmi	105d00 <ada__tags__displace+0xcc>
  105cd0:	e283300a 	add	r3, r3, #10
  105cd4:	e7923103 	ldr	r3, [r2, r3, lsl #2]
  105cd8:	e1510003 	cmp	r1, r3
  105cdc:	1a000007 	bne	105d00 <ada__tags__displace+0xcc>
  105ce0:	e1a00004 	mov	r0, r4
  105ce4:	e8bd8070 	pop	{r4, r5, r6, pc}
  105ce8:	e1a04000 	mov	r4, r0
  105cec:	e1a00004 	mov	r0, r4
  105cf0:	e8bd8070 	pop	{r4, r5, r6, pc}
  105cf4:	e5123008 	ldr	r3, [r2, #-8]
  105cf8:	e0444003 	sub	r4, r4, r3
  105cfc:	eafffff7 	b	105ce0 <ada__tags__displace+0xac>
  105d00:	e30114cc 	movw	r1, #5324	; 0x14cc
  105d04:	e30305f4 	movw	r0, #13812	; 0x35f4
  105d08:	e3401011 	movt	r1, #17
  105d0c:	e3400011 	movt	r0, #17
  105d10:	e59f2000 	ldr	r2, [pc]	; 105d18 <ada__tags__displace+0xe4>
  105d14:	eb0018e7 	bl	10c0b8 <__gnat_raise_exception>
  105d18:	00111480 	andseq	r1, r1, r0, lsl #9

00105d1c <ada__tags__dt>:
  105d1c:	e2400014 	sub	r0, r0, #20
  105d20:	e12fff1e 	bx	lr

00105d24 <ada__tags__iw_membership__2>:
  105d24:	e590c020 	ldr	ip, [r0, #32]
  105d28:	e35c0000 	cmp	ip, #0
  105d2c:	0a000019 	beq	105d98 <ada__tags__iw_membership__2+0x74>
  105d30:	e52de004 	push	{lr}		; (str lr, [sp, #-4]!)
  105d34:	e3a03000 	mov	r3, #0
  105d38:	e59ce000 	ldr	lr, [ip]
  105d3c:	ea000001 	b	105d48 <ada__tags__iw_membership__2+0x24>
  105d40:	e15e0003 	cmp	lr, r3
  105d44:	0a000007 	beq	105d68 <ada__tags__iw_membership__2+0x44>
  105d48:	e2833001 	add	r3, r3, #1
  105d4c:	e0832103 	add	r2, r3, r3, lsl #2
  105d50:	e08c2102 	add	r2, ip, r2, lsl #2
  105d54:	e5122010 	ldr	r2, [r2, #-16]
  105d58:	e1520001 	cmp	r2, r1
  105d5c:	1afffff7 	bne	105d40 <ada__tags__iw_membership__2+0x1c>
  105d60:	e3a00001 	mov	r0, #1
  105d64:	e49df004 	pop	{pc}		; (ldr pc, [sp], #4)
  105d68:	e3e03000 	mvn	r3, #0
  105d6c:	e490c024 	ldr	ip, [r0], #36	; 0x24
  105d70:	ea000001 	b	105d7c <ada__tags__iw_membership__2+0x58>
  105d74:	e15c0003 	cmp	ip, r3
  105d78:	0a000004 	beq	105d90 <ada__tags__iw_membership__2+0x6c>
  105d7c:	e5b02004 	ldr	r2, [r0, #4]!
  105d80:	e2833001 	add	r3, r3, #1
  105d84:	e1510002 	cmp	r1, r2
  105d88:	1afffff9 	bne	105d74 <ada__tags__iw_membership__2+0x50>
  105d8c:	eafffff3 	b	105d60 <ada__tags__iw_membership__2+0x3c>
  105d90:	e3a00000 	mov	r0, #0
  105d94:	e49df004 	pop	{pc}		; (ldr pc, [sp], #4)
  105d98:	e3e03000 	mvn	r3, #0
  105d9c:	e490c024 	ldr	ip, [r0], #36	; 0x24
  105da0:	ea000001 	b	105dac <ada__tags__iw_membership__2+0x88>
  105da4:	e15c0003 	cmp	ip, r3
  105da8:	0a000005 	beq	105dc4 <ada__tags__iw_membership__2+0xa0>
  105dac:	e5b02004 	ldr	r2, [r0, #4]!
  105db0:	e2833001 	add	r3, r3, #1
  105db4:	e1510002 	cmp	r1, r2
  105db8:	1afffff9 	bne	105da4 <ada__tags__iw_membership__2+0x80>
  105dbc:	e3a00001 	mov	r0, #1
  105dc0:	e12fff1e 	bx	lr
  105dc4:	e3a00000 	mov	r0, #0
  105dc8:	e12fff1e 	bx	lr

00105dcc <ada__tags__iw_membership>:
  105dcc:	e5903000 	ldr	r3, [r0]
  105dd0:	e5133008 	ldr	r3, [r3, #-8]
  105dd4:	e3730106 	cmn	r3, #-2147483647	; 0x80000001
  105dd8:	05903004 	ldreq	r3, [r0, #4]
  105ddc:	e7933000 	ldr	r3, [r3, r0]
  105de0:	e5130004 	ldr	r0, [r3, #-4]
  105de4:	eaffffce 	b	105d24 <ada__tags__iw_membership__2>

00105de8 <ada__tags__expanded_name>:
  105de8:	e3510000 	cmp	r1, #0
  105dec:	e92d47f0 	push	{r4, r5, r6, r7, r8, r9, sl, lr}
  105df0:	0a000021 	beq	105e7c <ada__tags__expanded_name+0x94>
  105df4:	e5113004 	ldr	r3, [r1, #-4]
  105df8:	e1a06000 	mov	r6, r0
  105dfc:	e593700c 	ldr	r7, [r3, #12]
  105e00:	e5d74000 	ldrb	r4, [r7]
  105e04:	e3540000 	cmp	r4, #0
  105e08:	0a000018 	beq	105e70 <ada__tags__expanded_name+0x88>
  105e0c:	e1a03007 	mov	r3, r7
  105e10:	e3a04001 	mov	r4, #1
  105e14:	ea000000 	b	105e1c <ada__tags__expanded_name+0x34>
  105e18:	e1a04000 	mov	r4, r0
  105e1c:	e5f32001 	ldrb	r2, [r3, #1]!
  105e20:	e2840001 	add	r0, r4, #1
  105e24:	e3520000 	cmp	r2, #0
  105e28:	1afffffa 	bne	105e18 <ada__tags__expanded_name+0x30>
  105e2c:	e284000b 	add	r0, r4, #11
  105e30:	e1a09004 	mov	r9, r4
  105e34:	e3c00003 	bic	r0, r0, #3
  105e38:	eb000b48 	bl	108b60 <system__secondary_stack__ss_allocate>
  105e3c:	e3a03001 	mov	r3, #1
  105e40:	e2808008 	add	r8, r0, #8
  105e44:	e1a05000 	mov	r5, r0
  105e48:	e5804004 	str	r4, [r0, #4]
  105e4c:	e5803000 	str	r3, [r0]
  105e50:	e1a02009 	mov	r2, r9
  105e54:	e1a01007 	mov	r1, r7
  105e58:	e1a00008 	mov	r0, r8
  105e5c:	fa002595 	blx	10f4b8 <memcpy>
  105e60:	e5868000 	str	r8, [r6]
  105e64:	e1a00006 	mov	r0, r6
  105e68:	e5865004 	str	r5, [r6, #4]
  105e6c:	e8bd87f0 	pop	{r4, r5, r6, r7, r8, r9, sl, pc}
  105e70:	e3a00008 	mov	r0, #8
  105e74:	e1a09004 	mov	r9, r4
  105e78:	eaffffee 	b	105e38 <ada__tags__expanded_name+0x50>
  105e7c:	e3011510 	movw	r1, #5392	; 0x1510
  105e80:	e3012478 	movw	r2, #5240	; 0x1478
  105e84:	e3030504 	movw	r0, #13572	; 0x3504
  105e88:	e3401011 	movt	r1, #17
  105e8c:	e3402011 	movt	r2, #17
  105e90:	e3400011 	movt	r0, #17
  105e94:	eb001887 	bl	10c0b8 <__gnat_raise_exception>

00105e98 <ada__tags__external_tag>:
  105e98:	e3510000 	cmp	r1, #0
  105e9c:	e92d47f0 	push	{r4, r5, r6, r7, r8, r9, sl, lr}
  105ea0:	0a000021 	beq	105f2c <ada__tags__external_tag+0x94>
  105ea4:	e5113004 	ldr	r3, [r1, #-4]
  105ea8:	e1a06000 	mov	r6, r0
  105eac:	e5937010 	ldr	r7, [r3, #16]
  105eb0:	e5d74000 	ldrb	r4, [r7]
  105eb4:	e3540000 	cmp	r4, #0
  105eb8:	0a000018 	beq	105f20 <ada__tags__external_tag+0x88>
  105ebc:	e1a03007 	mov	r3, r7
  105ec0:	e3a04001 	mov	r4, #1
  105ec4:	ea000000 	b	105ecc <ada__tags__external_tag+0x34>
  105ec8:	e1a04000 	mov	r4, r0
  105ecc:	e5f32001 	ldrb	r2, [r3, #1]!
  105ed0:	e2840001 	add	r0, r4, #1
  105ed4:	e3520000 	cmp	r2, #0
  105ed8:	1afffffa 	bne	105ec8 <ada__tags__external_tag+0x30>
  105edc:	e284000b 	add	r0, r4, #11
  105ee0:	e1a09004 	mov	r9, r4
  105ee4:	e3c00003 	bic	r0, r0, #3
  105ee8:	eb000b1c 	bl	108b60 <system__secondary_stack__ss_allocate>
  105eec:	e3a03001 	mov	r3, #1
  105ef0:	e2808008 	add	r8, r0, #8
  105ef4:	e1a05000 	mov	r5, r0
  105ef8:	e5804004 	str	r4, [r0, #4]
  105efc:	e5803000 	str	r3, [r0]
  105f00:	e1a02009 	mov	r2, r9
  105f04:	e1a01007 	mov	r1, r7
  105f08:	e1a00008 	mov	r0, r8
  105f0c:	fa002569 	blx	10f4b8 <memcpy>
  105f10:	e5868000 	str	r8, [r6]
  105f14:	e1a00006 	mov	r0, r6
  105f18:	e5865004 	str	r5, [r6, #4]
  105f1c:	e8bd87f0 	pop	{r4, r5, r6, r7, r8, r9, sl, pc}
  105f20:	e3a00008 	mov	r0, #8
  105f24:	e1a09004 	mov	r9, r4
  105f28:	eaffffee 	b	105ee8 <ada__tags__external_tag+0x50>
  105f2c:	e3011520 	movw	r1, #5408	; 0x1520
  105f30:	e3012478 	movw	r2, #5240	; 0x1478
  105f34:	e3030504 	movw	r0, #13572	; 0x3504
  105f38:	e3401011 	movt	r1, #17
  105f3c:	e3402011 	movt	r2, #17
  105f40:	e3400011 	movt	r0, #17
  105f44:	eb00185b 	bl	10c0b8 <__gnat_raise_exception>

00105f48 <ada__tags__get_entry_index>:
  105f48:	e5103004 	ldr	r3, [r0, #-4]
  105f4c:	e5933024 	ldr	r3, [r3, #36]	; 0x24
  105f50:	e0831181 	add	r1, r3, r1, lsl #3
  105f54:	e5110004 	ldr	r0, [r1, #-4]
  105f58:	e12fff1e 	bx	lr

00105f5c <ada__tags__get_prim_op_kind>:
  105f5c:	e5103004 	ldr	r3, [r0, #-4]
  105f60:	e5933024 	ldr	r3, [r3, #36]	; 0x24
  105f64:	e7d30181 	ldrb	r0, [r3, r1, lsl #3]
  105f68:	e12fff1e 	bx	lr

00105f6c <ada__tags__get_offset_index>:
  105f6c:	e5503010 	ldrb	r3, [r0, #-16]
  105f70:	e3530001 	cmp	r3, #1
  105f74:	15103004 	ldrne	r3, [r0, #-4]
  105f78:	17930101 	ldrne	r0, [r3, r1, lsl #2]
  105f7c:	01a00001 	moveq	r0, r1
  105f80:	e12fff1e 	bx	lr

00105f84 <ada__tags__get_tagged_kind>:
  105f84:	e550000f 	ldrb	r0, [r0, #-15]
  105f88:	e12fff1e 	bx	lr

00105f8c <ada__tags__interface_ancestor_tags>:
  105f8c:	e92d4070 	push	{r4, r5, r6, lr}
  105f90:	e1a06000 	mov	r6, r0
  105f94:	e5113004 	ldr	r3, [r1, #-4]
  105f98:	e5934020 	ldr	r4, [r3, #32]
  105f9c:	e3540000 	cmp	r4, #0
  105fa0:	0a00001e 	beq	106020 <ada__tags__interface_ancestor_tags+0x94>
  105fa4:	e5945000 	ldr	r5, [r4]
  105fa8:	e2850002 	add	r0, r5, #2
  105fac:	e1a00100 	lsl	r0, r0, #2
  105fb0:	eb000aea 	bl	108b60 <system__secondary_stack__ss_allocate>
  105fb4:	e3550000 	cmp	r5, #0
  105fb8:	e3a03001 	mov	r3, #1
  105fbc:	e2801004 	add	r1, r0, #4
  105fc0:	e5803000 	str	r3, [r0]
  105fc4:	c3a03000 	movgt	r3, #0
  105fc8:	e5805004 	str	r5, [r0, #4]
  105fcc:	e280e008 	add	lr, r0, #8
  105fd0:	c1a02001 	movgt	r2, r1
  105fd4:	c1a0c003 	movgt	ip, r3
  105fd8:	da000003 	ble	105fec <ada__tags__interface_ancestor_tags+0x60>
  105fdc:	e2833001 	add	r3, r3, #1
  105fe0:	e5a2c004 	str	ip, [r2, #4]!
  105fe4:	e1550003 	cmp	r5, r3
  105fe8:	1afffffb 	bne	105fdc <ada__tags__interface_ancestor_tags+0x50>
  105fec:	e594c000 	ldr	ip, [r4]
  105ff0:	e3a03000 	mov	r3, #0
  105ff4:	e2833001 	add	r3, r3, #1
  105ff8:	e0832103 	add	r2, r3, r3, lsl #2
  105ffc:	e15c0003 	cmp	ip, r3
  106000:	e0842102 	add	r2, r4, r2, lsl #2
  106004:	e5122010 	ldr	r2, [r2, #-16]
  106008:	e5a12004 	str	r2, [r1, #4]!
  10600c:	1afffff8 	bne	105ff4 <ada__tags__interface_ancestor_tags+0x68>
  106010:	e5860004 	str	r0, [r6, #4]
  106014:	e1a00006 	mov	r0, r6
  106018:	e586e000 	str	lr, [r6]
  10601c:	e8bd8070 	pop	{r4, r5, r6, pc}
  106020:	e3a0000c 	mov	r0, #12
  106024:	eb000acd 	bl	108b60 <system__secondary_stack__ss_allocate>
  106028:	e3a02001 	mov	r2, #1
  10602c:	e2803008 	add	r3, r0, #8
  106030:	e5804004 	str	r4, [r0, #4]
  106034:	e5860004 	str	r0, [r6, #4]
  106038:	e5802000 	str	r2, [r0]
  10603c:	e1a00006 	mov	r0, r6
  106040:	e5863000 	str	r3, [r6]
  106044:	e8bd8070 	pop	{r4, r5, r6, pc}

00106048 <ada__tags__internal_tag>:
  106048:	e92d4ff0 	push	{r4, r5, r6, r7, r8, r9, sl, fp, lr}
  10604c:	e28db020 	add	fp, sp, #32
  106050:	e24dd03c 	sub	sp, sp, #60	; 0x3c
  106054:	e5915000 	ldr	r5, [r1]
  106058:	e5914004 	ldr	r4, [r1, #4]
  10605c:	e50b1058 	str	r1, [fp, #-88]	; 0xffffffa8
  106060:	e1550004 	cmp	r5, r4
  106064:	ca0000fc 	bgt	10645c <ada__tags__internal_tag+0x414>
  106068:	e1a03fc5 	asr	r3, r5, #31
  10606c:	e1a02005 	mov	r2, r5
  106070:	e1a09fc4 	asr	r9, r4, #31
  106074:	e1a08004 	mov	r8, r4
  106078:	e14b25f4 	strd	r2, [fp, #-84]	; 0xffffffac
  10607c:	e0542005 	subs	r2, r4, r5
  106080:	e0c93003 	sbc	r3, r9, r3
  106084:	e1a06002 	mov	r6, r2
  106088:	e1a07003 	mov	r7, r3
  10608c:	e3a03000 	mov	r3, #0
  106090:	e302270f 	movw	r2, #9999	; 0x270f
  106094:	e1570003 	cmp	r7, r3
  106098:	01560002 	cmpeq	r6, r2
  10609c:	8a0000ee 	bhi	10645c <ada__tags__internal_tag+0x414>
  1060a0:	e14b25d4 	ldrd	r2, [fp, #-84]	; 0xffffffac
  1060a4:	e1a0a000 	mov	sl, r0
  1060a8:	e292200f 	adds	r2, r2, #15
  1060ac:	e2a33000 	adc	r3, r3, #0
  1060b0:	e1520004 	cmp	r2, r4
  1060b4:	e0d33009 	sbcs	r3, r3, r9
  1060b8:	aa000062 	bge	106248 <ada__tags__internal_tag+0x200>
  1060bc:	e285300e 	add	r3, r5, #14
  1060c0:	e1530004 	cmp	r3, r4
  1060c4:	aa00011b 	bge	106538 <ada__tags__internal_tag+0x4f0>
  1060c8:	e3750146 	cmn	r5, #-2147483631	; 0x80000011
  1060cc:	ca00011c 	bgt	106544 <ada__tags__internal_tag+0x4fc>
  1060d0:	e3011544 	movw	r1, #5444	; 0x1544
  1060d4:	e3a02010 	mov	r2, #16
  1060d8:	e3401011 	movt	r1, #17
  1060dc:	fa0024dd 	blx	10f458 <memcmp>
  1060e0:	e3500000 	cmp	r0, #0
  1060e4:	1a000057 	bne	106248 <ada__tags__internal_tag+0x200>
  1060e8:	e295e010 	adds	lr, r5, #16
  1060ec:	4a0000f0 	bmi	1064b4 <ada__tags__internal_tag+0x46c>
  1060f0:	e51b6058 	ldr	r6, [fp, #-88]	; 0xffffffa8
  1060f4:	e1a0300e 	mov	r3, lr
  1060f8:	e3a00002 	mov	r0, #2
  1060fc:	e265c001 	rsb	ip, r5, #1
  106100:	e1530004 	cmp	r3, r4
  106104:	ca000015 	bgt	106160 <ada__tags__internal_tag+0x118>
  106108:	e1530005 	cmp	r3, r5
  10610c:	ba0000cc 	blt	106444 <ada__tags__internal_tag+0x3fc>
  106110:	e0432005 	sub	r2, r3, r5
  106114:	e7da2002 	ldrb	r2, [sl, r2]
  106118:	e3520023 	cmp	r2, #35	; 0x23
  10611c:	0a00000f 	beq	106160 <ada__tags__internal_tag+0x118>
  106120:	e3730106 	cmn	r3, #-2147483647	; 0x80000001
  106124:	0a0000c9 	beq	106450 <ada__tags__internal_tag+0x408>
  106128:	e08c2003 	add	r2, ip, r3
  10612c:	e2422001 	sub	r2, r2, #1
  106130:	e08a2002 	add	r2, sl, r2
  106134:	ea000006 	b	106154 <ada__tags__internal_tag+0x10c>
  106138:	e1550003 	cmp	r5, r3
  10613c:	ca0000c0 	bgt	106444 <ada__tags__internal_tag+0x3fc>
  106140:	e5f21001 	ldrb	r1, [r2, #1]!
  106144:	e3510023 	cmp	r1, #35	; 0x23
  106148:	0a000004 	beq	106160 <ada__tags__internal_tag+0x118>
  10614c:	e3730106 	cmn	r3, #-2147483647	; 0x80000001
  106150:	0a0000be 	beq	106450 <ada__tags__internal_tag+0x408>
  106154:	e2833001 	add	r3, r3, #1
  106158:	e1540003 	cmp	r4, r3
  10615c:	aafffff5 	bge	106138 <ada__tags__internal_tag+0xf0>
  106160:	e3500001 	cmp	r0, #1
  106164:	1a0000ae 	bne	106424 <ada__tags__internal_tag+0x3dc>
  106168:	e1540003 	cmp	r4, r3
  10616c:	e50b6058 	str	r6, [fp, #-88]	; 0xffffffa8
  106170:	aa000080 	bge	106378 <ada__tags__internal_tag+0x330>
  106174:	e14b25d4 	ldrd	r2, [fp, #-84]	; 0xffffffac
  106178:	e3a01000 	mov	r1, #0
  10617c:	e3e00000 	mvn	r0, #0
  106180:	e0582002 	subs	r2, r8, r2
  106184:	e0c93003 	sbc	r3, r9, r3
  106188:	e2922106 	adds	r2, r2, #-2147483647	; 0x80000001
  10618c:	e2a33000 	adc	r3, r3, #0
  106190:	e1530001 	cmp	r3, r1
  106194:	01520000 	cmpeq	r2, r0
  106198:	8a0000dd 	bhi	106514 <ada__tags__internal_tag+0x4cc>
  10619c:	e284c001 	add	ip, r4, #1
  1061a0:	e04c3005 	sub	r3, ip, r5
  1061a4:	e373015a 	cmn	r3, #-2147483626	; 0x80000016
  1061a8:	e50b3058 	str	r3, [fp, #-88]	; 0xffffffa8
  1061ac:	ca0000d8 	bgt	106514 <ada__tags__internal_tag+0x4cc>
  1061b0:	e51b3058 	ldr	r3, [fp, #-88]	; 0xffffffa8
  1061b4:	e2836015 	add	r6, r3, #21
  1061b8:	e1c63fc6 	bic	r3, r6, r6, asr #31
  1061bc:	e3560014 	cmp	r6, #20
  1061c0:	e2833007 	add	r3, r3, #7
  1061c4:	e3c33007 	bic	r3, r3, #7
  1061c8:	e04dd003 	sub	sp, sp, r3
  1061cc:	e1a0700d 	mov	r7, sp
  1061d0:	da0000c9 	ble	1064fc <ada__tags__internal_tag+0x4b4>
  1061d4:	e3011558 	movw	r1, #5464	; 0x1558
  1061d8:	e3a02015 	mov	r2, #21
  1061dc:	e3401011 	movt	r1, #17
  1061e0:	e1a0000d 	mov	r0, sp
  1061e4:	e0444005 	sub	r4, r4, r5
  1061e8:	fa0024b2 	blx	10f4b8 <memcpy>
  1061ec:	e2843016 	add	r3, r4, #22
  1061f0:	e1530006 	cmp	r3, r6
  1061f4:	ca0000c3 	bgt	106508 <ada__tags__internal_tag+0x4c0>
  1061f8:	e2844001 	add	r4, r4, #1
  1061fc:	e374015a 	cmn	r4, #-2147483626	; 0x80000016
  106200:	ca0000c6 	bgt	106520 <ada__tags__internal_tag+0x4d8>
  106204:	e3560015 	cmp	r6, #21
  106208:	e51bc058 	ldr	ip, [fp, #-88]	; 0xffffffa8
  10620c:	0a000089 	beq	106438 <ada__tags__internal_tag+0x3f0>
  106210:	e1a01fc6 	asr	r1, r6, #31
  106214:	e2564015 	subs	r4, r6, #21
  106218:	e2c15000 	sbc	r5, r1, #0
  10621c:	e14b25d4 	ldrd	r2, [fp, #-84]	; 0xffffffac
  106220:	e0582002 	subs	r2, r8, r2
  106224:	e0c93003 	sbc	r3, r9, r3
  106228:	e2922001 	adds	r2, r2, #1
  10622c:	e2a33000 	adc	r3, r3, #0
  106230:	e1530005 	cmp	r3, r5
  106234:	01520004 	cmpeq	r2, r4
  106238:	0a000042 	beq	106348 <ada__tags__internal_tag+0x300>
  10623c:	e30012fe 	movw	r1, #766	; 0x2fe
  106240:	e59f0308 	ldr	r0, [pc, #776]	; 106550 <ada__tags__internal_tag+0x508>
  106244:	eb0018c3 	bl	10c558 <__gnat_rcheck_CE_Length_Check>
  106248:	e3740106 	cmn	r4, #-2147483647	; 0x80000001
  10624c:	e1a0700d 	mov	r7, sp
  106250:	0a0000b5 	beq	10652c <ada__tags__internal_tag+0x4e4>
  106254:	e2844001 	add	r4, r4, #1
  106258:	e3550000 	cmp	r5, #0
  10625c:	d1550004 	cmple	r5, r4
  106260:	d3a03001 	movle	r3, #1
  106264:	c3a03000 	movgt	r3, #0
  106268:	da000097 	ble	1064cc <ada__tags__internal_tag+0x484>
  10626c:	e1550004 	cmp	r5, r4
  106270:	e0448005 	sub	r8, r4, r5
  106274:	d0443005 	suble	r3, r4, r5
  106278:	e1a02008 	mov	r2, r8
  10627c:	d2833001 	addle	r3, r3, #1
  106280:	e1a0100a 	mov	r1, sl
  106284:	e2833007 	add	r3, r3, #7
  106288:	e3c33007 	bic	r3, r3, #7
  10628c:	e04dd003 	sub	sp, sp, r3
  106290:	e1a0000d 	mov	r0, sp
  106294:	fa002487 	blx	10f4b8 <memcpy>
  106298:	e1550004 	cmp	r5, r4
  10629c:	ca000087 	bgt	1064c0 <ada__tags__internal_tag+0x478>
  1062a0:	e3a03000 	mov	r3, #0
  1062a4:	e1a0000d 	mov	r0, sp
  1062a8:	e7cd3008 	strb	r3, [sp, r8]
  1062ac:	ebfffd1f 	bl	105730 <ada__tags__external_tag_htable__getXn>
  1062b0:	e3500000 	cmp	r0, #0
  1062b4:	e1a0d007 	mov	sp, r7
  1062b8:	0a000012 	beq	106308 <ada__tags__internal_tag+0x2c0>
  1062bc:	e24bd020 	sub	sp, fp, #32
  1062c0:	e8bd8ff0 	pop	{r4, r5, r6, r7, r8, r9, sl, fp, pc}
  1062c4:	e5fc1001 	ldrb	r1, [ip, #1]!
  1062c8:	e3c10020 	bic	r0, r1, #32
  1062cc:	e2411030 	sub	r1, r1, #48	; 0x30
  1062d0:	e2400041 	sub	r0, r0, #65	; 0x41
  1062d4:	e3500005 	cmp	r0, #5
  1062d8:	83510009 	cmphi	r1, #9
  1062dc:	8affffa4 	bhi	106174 <ada__tags__internal_tag+0x12c>
  1062e0:	e1570002 	cmp	r7, r2
  1062e4:	1a000043 	bne	1063f8 <ada__tags__internal_tag+0x3b0>
  1062e8:	e50b6058 	str	r6, [fp, #-88]	; 0xffffffa8
  1062ec:	e28a0010 	add	r0, sl, #16
  1062f0:	e24b104c 	sub	r1, fp, #76	; 0x4c
  1062f4:	e50be04c 	str	lr, [fp, #-76]	; 0xffffffb4
  1062f8:	e50b3048 	str	r3, [fp, #-72]	; 0xffffffb8
  1062fc:	eb000dc0 	bl	109a04 <system__val_uns__value_unsigned>
  106300:	e3500000 	cmp	r0, #0
  106304:	1affffec 	bne	1062bc <ada__tags__internal_tag+0x274>
  106308:	e51b3058 	ldr	r3, [fp, #-88]	; 0xffffffa8
  10630c:	e5934004 	ldr	r4, [r3, #4]
  106310:	e5935000 	ldr	r5, [r3]
  106314:	e1540005 	cmp	r4, r5
  106318:	aa00006e 	bge	1064d8 <ada__tags__internal_tag+0x490>
  10631c:	e301e558 	movw	lr, #5464	; 0x1558
  106320:	e24b403c 	sub	r4, fp, #60	; 0x3c
  106324:	e340e011 	movt	lr, #17
  106328:	e1a07004 	mov	r7, r4
  10632c:	e8be000f 	ldm	lr!, {r0, r1, r2, r3}
  106330:	e3a06015 	mov	r6, #21
  106334:	e3a0c000 	mov	ip, #0
  106338:	e8a4000f 	stmia	r4!, {r0, r1, r2, r3}
  10633c:	e89e0003 	ldm	lr, {r0, r1}
  106340:	e4840004 	str	r0, [r4], #4
  106344:	e5c41000 	strb	r1, [r4]
  106348:	e1a0200c 	mov	r2, ip
  10634c:	e1a0100a 	mov	r1, sl
  106350:	e2870015 	add	r0, r7, #21
  106354:	fa002457 	blx	10f4b8 <memcpy>
  106358:	e3030504 	movw	r0, #13572	; 0x3504
  10635c:	e3a03001 	mov	r3, #1
  106360:	e1a01007 	mov	r1, r7
  106364:	e3400011 	movt	r0, #17
  106368:	e24b2044 	sub	r2, fp, #68	; 0x44
  10636c:	e50b6040 	str	r6, [fp, #-64]	; 0xffffffc0
  106370:	e50b3044 	str	r3, [fp, #-68]	; 0xffffffbc
  106374:	eb00174f 	bl	10c0b8 <__gnat_raise_exception>
  106378:	e154000e 	cmp	r4, lr
  10637c:	ba00005b 	blt	1064f0 <ada__tags__internal_tag+0x4a8>
  106380:	e04e2005 	sub	r2, lr, r5
  106384:	e7da2002 	ldrb	r2, [sl, r2]
  106388:	e3520031 	cmp	r2, #49	; 0x31
  10638c:	1affff78 	bne	106174 <ada__tags__internal_tag+0x12c>
  106390:	e37e0106 	cmn	lr, #-2147483647	; 0x80000001
  106394:	0a000043 	beq	1064a8 <ada__tags__internal_tag+0x460>
  106398:	e2852011 	add	r2, r5, #17
  10639c:	e1540002 	cmp	r4, r2
  1063a0:	ba00003d 	blt	10649c <ada__tags__internal_tag+0x454>
  1063a4:	e28e2001 	add	r2, lr, #1
  1063a8:	e0422005 	sub	r2, r2, r5
  1063ac:	e7da2002 	ldrb	r2, [sl, r2]
  1063b0:	e3520036 	cmp	r2, #54	; 0x36
  1063b4:	1affff6e 	bne	106174 <ada__tags__internal_tag+0x12c>
  1063b8:	e37e010a 	cmn	lr, #-2147483646	; 0x80000002
  1063bc:	0a000033 	beq	106490 <ada__tags__internal_tag+0x448>
  1063c0:	e2852012 	add	r2, r5, #18
  1063c4:	e1540002 	cmp	r4, r2
  1063c8:	ba00002d 	blt	106484 <ada__tags__internal_tag+0x43c>
  1063cc:	e28e1002 	add	r1, lr, #2
  1063d0:	e0411005 	sub	r1, r1, r5
  1063d4:	e7da1001 	ldrb	r1, [sl, r1]
  1063d8:	e3510023 	cmp	r1, #35	; 0x23
  1063dc:	1affff64 	bne	106174 <ada__tags__internal_tag+0x12c>
  1063e0:	e2437001 	sub	r7, r3, #1
  1063e4:	e2851013 	add	r1, r5, #19
  1063e8:	e1570001 	cmp	r7, r1
  1063ec:	baffffbe 	blt	1062ec <ada__tags__internal_tag+0x2a4>
  1063f0:	e51b6058 	ldr	r6, [fp, #-88]	; 0xffffffa8
  1063f4:	e28ac012 	add	ip, sl, #18
  1063f8:	e2822001 	add	r2, r2, #1
  1063fc:	e1520005 	cmp	r2, r5
  106400:	a3a01000 	movge	r1, #0
  106404:	b3a01001 	movlt	r1, #1
  106408:	e1520004 	cmp	r2, r4
  10640c:	c3811001 	orrgt	r1, r1, #1
  106410:	e3510000 	cmp	r1, #0
  106414:	0affffaa 	beq	1062c4 <ada__tags__internal_tag+0x27c>
  106418:	e30012cb 	movw	r1, #715	; 0x2cb
  10641c:	e59f012c 	ldr	r0, [pc, #300]	; 106550 <ada__tags__internal_tag+0x508>
  106420:	eb001842 	bl	10c530 <__gnat_rcheck_CE_Index_Check>
  106424:	e3730106 	cmn	r3, #-2147483647	; 0x80000001
  106428:	0a000012 	beq	106478 <ada__tags__internal_tag+0x430>
  10642c:	e2833001 	add	r3, r3, #1
  106430:	e3a00001 	mov	r0, #1
  106434:	eaffff31 	b	106100 <ada__tags__internal_tag+0xb8>
  106438:	e3a04000 	mov	r4, #0
  10643c:	e3a05000 	mov	r5, #0
  106440:	eaffff75 	b	10621c <ada__tags__internal_tag+0x1d4>
  106444:	e30012ab 	movw	r1, #683	; 0x2ab
  106448:	e59f0100 	ldr	r0, [pc, #256]	; 106550 <ada__tags__internal_tag+0x508>
  10644c:	eb001837 	bl	10c530 <__gnat_rcheck_CE_Index_Check>
  106450:	e30012ad 	movw	r1, #685	; 0x2ad
  106454:	e59f00f4 	ldr	r0, [pc, #244]	; 106550 <ada__tags__internal_tag+0x508>
  106458:	eb00184d 	bl	10c594 <__gnat_rcheck_CE_Overflow_Check>
  10645c:	e3011534 	movw	r1, #5428	; 0x1534
  106460:	e3012478 	movw	r2, #5240	; 0x1478
  106464:	e3030504 	movw	r0, #13572	; 0x3504
  106468:	e3401011 	movt	r1, #17
  10646c:	e3402011 	movt	r2, #17
  106470:	e3400011 	movt	r0, #17
  106474:	eb00170f 	bl	10c0b8 <__gnat_raise_exception>
  106478:	e30012b3 	movw	r1, #691	; 0x2b3
  10647c:	e59f00cc 	ldr	r0, [pc, #204]	; 106550 <ada__tags__internal_tag+0x508>
  106480:	eb001843 	bl	10c594 <__gnat_rcheck_CE_Overflow_Check>
  106484:	e30012c5 	movw	r1, #709	; 0x2c5
  106488:	e59f00c0 	ldr	r0, [pc, #192]	; 106550 <ada__tags__internal_tag+0x508>
  10648c:	eb001827 	bl	10c530 <__gnat_rcheck_CE_Index_Check>
  106490:	e30012c5 	movw	r1, #709	; 0x2c5
  106494:	e59f00b4 	ldr	r0, [pc, #180]	; 106550 <ada__tags__internal_tag+0x508>
  106498:	eb00183d 	bl	10c594 <__gnat_rcheck_CE_Overflow_Check>
  10649c:	e3a01fb1 	mov	r1, #708	; 0x2c4
  1064a0:	e59f00a8 	ldr	r0, [pc, #168]	; 106550 <ada__tags__internal_tag+0x508>
  1064a4:	eb001821 	bl	10c530 <__gnat_rcheck_CE_Index_Check>
  1064a8:	e3a01fb1 	mov	r1, #708	; 0x2c4
  1064ac:	e59f009c 	ldr	r0, [pc, #156]	; 106550 <ada__tags__internal_tag+0x508>
  1064b0:	eb001837 	bl	10c594 <__gnat_rcheck_CE_Overflow_Check>
  1064b4:	e3a01e2a 	mov	r1, #672	; 0x2a0
  1064b8:	e59f0090 	ldr	r0, [pc, #144]	; 106550 <ada__tags__internal_tag+0x508>
  1064bc:	eb00183e 	bl	10c5bc <__gnat_rcheck_CE_Range_Check>
  1064c0:	e30012f1 	movw	r1, #753	; 0x2f1
  1064c4:	e59f0084 	ldr	r0, [pc, #132]	; 106550 <ada__tags__internal_tag+0x508>
  1064c8:	eb001818 	bl	10c530 <__gnat_rcheck_CE_Index_Check>
  1064cc:	e30012ed 	movw	r1, #749	; 0x2ed
  1064d0:	e59f0078 	ldr	r0, [pc, #120]	; 106550 <ada__tags__internal_tag+0x508>
  1064d4:	eb001838 	bl	10c5bc <__gnat_rcheck_CE_Range_Check>
  1064d8:	e1a03fc5 	asr	r3, r5, #31
  1064dc:	e1a02005 	mov	r2, r5
  1064e0:	e1a08004 	mov	r8, r4
  1064e4:	e1a09fc4 	asr	r9, r4, #31
  1064e8:	e14b25f4 	strd	r2, [fp, #-84]	; 0xffffffac
  1064ec:	eaffff20 	b	106174 <ada__tags__internal_tag+0x12c>
  1064f0:	e30012c3 	movw	r1, #707	; 0x2c3
  1064f4:	e59f0054 	ldr	r0, [pc, #84]	; 106550 <ada__tags__internal_tag+0x508>
  1064f8:	eb00180c 	bl	10c530 <__gnat_rcheck_CE_Index_Check>
  1064fc:	e3a01fbf 	mov	r1, #764	; 0x2fc
  106500:	e59f0048 	ldr	r0, [pc, #72]	; 106550 <ada__tags__internal_tag+0x508>
  106504:	eb00182c 	bl	10c5bc <__gnat_rcheck_CE_Range_Check>
  106508:	e30012fd 	movw	r1, #765	; 0x2fd
  10650c:	e59f003c 	ldr	r0, [pc, #60]	; 106550 <ada__tags__internal_tag+0x508>
  106510:	eb001829 	bl	10c5bc <__gnat_rcheck_CE_Range_Check>
  106514:	e30012f9 	movw	r1, #761	; 0x2f9
  106518:	e59f0030 	ldr	r0, [pc, #48]	; 106550 <ada__tags__internal_tag+0x508>
  10651c:	eb00181c 	bl	10c594 <__gnat_rcheck_CE_Overflow_Check>
  106520:	e30012fd 	movw	r1, #765	; 0x2fd
  106524:	e59f0024 	ldr	r0, [pc, #36]	; 106550 <ada__tags__internal_tag+0x508>
  106528:	eb001819 	bl	10c594 <__gnat_rcheck_CE_Overflow_Check>
  10652c:	e30012ed 	movw	r1, #749	; 0x2ed
  106530:	e59f0018 	ldr	r0, [pc, #24]	; 106550 <ada__tags__internal_tag+0x508>
  106534:	eb001816 	bl	10c594 <__gnat_rcheck_CE_Overflow_Check>
  106538:	e300129a 	movw	r1, #666	; 0x29a
  10653c:	e59f000c 	ldr	r0, [pc, #12]	; 106550 <ada__tags__internal_tag+0x508>
  106540:	eb00181d 	bl	10c5bc <__gnat_rcheck_CE_Range_Check>
  106544:	e300129b 	movw	r1, #667	; 0x29b
  106548:	e59f0000 	ldr	r0, [pc]	; 106550 <ada__tags__internal_tag+0x508>
  10654c:	eb001810 	bl	10c594 <__gnat_rcheck_CE_Overflow_Check>
  106550:	00111488 	andseq	r1, r1, r8, lsl #9

00106554 <ada__tags__is_descendant_at_same_level>:
  106554:	e1500001 	cmp	r0, r1
  106558:	0a000010 	beq	1065a0 <ada__tags__is_descendant_at_same_level+0x4c>
  10655c:	e5100004 	ldr	r0, [r0, #-4]
  106560:	e5113004 	ldr	r3, [r1, #-4]
  106564:	e590c004 	ldr	ip, [r0, #4]
  106568:	e5932004 	ldr	r2, [r3, #4]
  10656c:	e15c0002 	cmp	ip, r2
  106570:	0a000001 	beq	10657c <ada__tags__is_descendant_at_same_level+0x28>
  106574:	e3a00000 	mov	r0, #0
  106578:	e12fff1e 	bx	lr
  10657c:	e5932000 	ldr	r2, [r3]
  106580:	e5903000 	ldr	r3, [r0]
  106584:	e0533002 	subs	r3, r3, r2
  106588:	4a000003 	bmi	10659c <ada__tags__is_descendant_at_same_level+0x48>
  10658c:	e283300a 	add	r3, r3, #10
  106590:	e7903103 	ldr	r3, [r0, r3, lsl #2]
  106594:	e1510003 	cmp	r1, r3
  106598:	0a000000 	beq	1065a0 <ada__tags__is_descendant_at_same_level+0x4c>
  10659c:	eafffde0 	b	105d24 <ada__tags__iw_membership__2>
  1065a0:	e3a00001 	mov	r0, #1
  1065a4:	e12fff1e 	bx	lr

001065a8 <ada__tags__descendant_tag>:
  1065a8:	e92d4070 	push	{r4, r5, r6, lr}
  1065ac:	e1a04002 	mov	r4, r2
  1065b0:	ebfffea4 	bl	106048 <ada__tags__internal_tag>
  1065b4:	e1a01004 	mov	r1, r4
  1065b8:	e1a05000 	mov	r5, r0
  1065bc:	ebffffe4 	bl	106554 <ada__tags__is_descendant_at_same_level>
  1065c0:	e3500000 	cmp	r0, #0
  1065c4:	0a000001 	beq	1065d0 <ada__tags__descendant_tag+0x28>
  1065c8:	e1a00005 	mov	r0, r5
  1065cc:	e8bd8070 	pop	{r4, r5, r6, pc}
  1065d0:	e30114bc 	movw	r1, #5308	; 0x14bc
  1065d4:	e3012478 	movw	r2, #5240	; 0x1478
  1065d8:	e3030504 	movw	r0, #13572	; 0x3504
  1065dc:	e3401011 	movt	r1, #17
  1065e0:	e3402011 	movt	r2, #17
  1065e4:	e3400011 	movt	r0, #17
  1065e8:	eb0016b2 	bl	10c0b8 <__gnat_raise_exception>

001065ec <ada__tags__length>:
  1065ec:	e5d03000 	ldrb	r3, [r0]
  1065f0:	e3530000 	cmp	r3, #0
  1065f4:	0a000007 	beq	106618 <ada__tags__length+0x2c>
  1065f8:	e1a03000 	mov	r3, r0
  1065fc:	e3a00001 	mov	r0, #1
  106600:	e5f32001 	ldrb	r2, [r3, #1]!
  106604:	e2801001 	add	r1, r0, #1
  106608:	e3520000 	cmp	r2, #0
  10660c:	012fff1e 	bxeq	lr
  106610:	e1a00001 	mov	r0, r1
  106614:	eafffff9 	b	106600 <ada__tags__length+0x14>
  106618:	e1a00003 	mov	r0, r3
  10661c:	e12fff1e 	bx	lr

00106620 <ada__tags__offset_to_top>:
  106620:	e5903000 	ldr	r3, [r0]
  106624:	e5133008 	ldr	r3, [r3, #-8]
  106628:	e3730106 	cmn	r3, #-2147483647	; 0x80000001
  10662c:	05903004 	ldreq	r3, [r0, #4]
  106630:	e1a00003 	mov	r0, r3
  106634:	e12fff1e 	bx	lr

00106638 <ada__tags__needs_finalization>:
  106638:	e5103004 	ldr	r3, [r0, #-4]
  10663c:	e5d3001a 	ldrb	r0, [r3, #26]
  106640:	e12fff1e 	bx	lr

00106644 <ada__tags__parent_size>:
  106644:	e92d4010 	push	{r4, lr}
  106648:	e5113004 	ldr	r3, [r1, #-4]
  10664c:	e593302c 	ldr	r3, [r3, #44]	; 0x2c
  106650:	e5133004 	ldr	r3, [r3, #-4]
  106654:	e593301c 	ldr	r3, [r3, #28]
  106658:	e12fff33 	blx	r3
  10665c:	e8bd8010 	pop	{r4, pc}

00106660 <ada__tags__parent_tag>:
  106660:	e3500000 	cmp	r0, #0
  106664:	0a000004 	beq	10667c <ada__tags__parent_tag+0x1c>
  106668:	e5103004 	ldr	r3, [r0, #-4]
  10666c:	e5930000 	ldr	r0, [r3]
  106670:	e3500000 	cmp	r0, #0
  106674:	1593002c 	ldrne	r0, [r3, #44]	; 0x2c
  106678:	e12fff1e 	bx	lr
  10667c:	e3011588 	movw	r1, #5512	; 0x1588
  106680:	e3012478 	movw	r2, #5240	; 0x1478
  106684:	e3030504 	movw	r0, #13572	; 0x3504
  106688:	e92d4010 	push	{r4, lr}
  10668c:	e3401011 	movt	r1, #17
  106690:	e3402011 	movt	r2, #17
  106694:	e3400011 	movt	r0, #17
  106698:	eb001686 	bl	10c0b8 <__gnat_raise_exception>

0010669c <ada__tags__register_interface_offset>:
  10669c:	e92d4070 	push	{r4, r5, r6, lr}
  1066a0:	e5100004 	ldr	r0, [r0, #-4]
  1066a4:	e5904020 	ldr	r4, [r0, #32]
  1066a8:	e3540000 	cmp	r4, #0
  1066ac:	0a000014 	beq	106704 <ada__tags__register_interface_offset+0x68>
  1066b0:	e5945000 	ldr	r5, [r4]
  1066b4:	e3a00000 	mov	r0, #0
  1066b8:	ea000001 	b	1066c4 <ada__tags__register_interface_offset+0x28>
  1066bc:	e1550000 	cmp	r5, r0
  1066c0:	0a00000f 	beq	106704 <ada__tags__register_interface_offset+0x68>
  1066c4:	e2800001 	add	r0, r0, #1
  1066c8:	e080c100 	add	ip, r0, r0, lsl #2
  1066cc:	e084c10c 	add	ip, r4, ip, lsl #2
  1066d0:	e51ce010 	ldr	lr, [ip, #-16]
  1066d4:	e15e0001 	cmp	lr, r1
  1066d8:	1afffff7 	bne	1066bc <ada__tags__register_interface_offset+0x20>
  1066dc:	e3530000 	cmp	r3, #0
  1066e0:	03822001 	orreq	r2, r2, #1
  1066e4:	e3520000 	cmp	r2, #0
  1066e8:	059d3010 	ldreq	r3, [sp, #16]
  1066ec:	13a02001 	movne	r2, #1
  1066f0:	150c3008 	strne	r3, [ip, #-8]
  1066f4:	154c200c 	strbne	r2, [ip, #-12]
  1066f8:	054c200c 	strbeq	r2, [ip, #-12]
  1066fc:	050c3004 	streq	r3, [ip, #-4]
  106700:	e8bd8070 	pop	{r4, r5, r6, pc}
  106704:	e30013d1 	movw	r1, #977	; 0x3d1
  106708:	e59f0000 	ldr	r0, [pc]	; 106710 <ada__tags__register_interface_offset+0x74>
  10670c:	eb0017d8 	bl	10c674 <__gnat_rcheck_PE_Explicit_Raise>
  106710:	00111488 	andseq	r1, r1, r8, lsl #9

00106714 <ada__tags__register_tag>:
  106714:	eafffccd 	b	105a50 <ada__tags__external_tag_htable__setXn>

00106718 <ada__tags__secondary_tag>:
  106718:	e2400014 	sub	r0, r0, #20
  10671c:	e92d4010 	push	{r4, lr}
  106720:	e5d03004 	ldrb	r3, [r0, #4]
  106724:	e3530001 	cmp	r3, #1
  106728:	1a000017 	bne	10678c <ada__tags__secondary_tag+0x74>
  10672c:	e5903010 	ldr	r3, [r0, #16]
  106730:	e593c020 	ldr	ip, [r3, #32]
  106734:	e35c0000 	cmp	ip, #0
  106738:	0a00000d 	beq	106774 <ada__tags__secondary_tag+0x5c>
  10673c:	e59ce000 	ldr	lr, [ip]
  106740:	e3a03000 	mov	r3, #0
  106744:	ea000001 	b	106750 <ada__tags__secondary_tag+0x38>
  106748:	e15e0003 	cmp	lr, r3
  10674c:	0a000008 	beq	106774 <ada__tags__secondary_tag+0x5c>
  106750:	e2833001 	add	r3, r3, #1
  106754:	e0832103 	add	r2, r3, r3, lsl #2
  106758:	e1a02102 	lsl	r2, r2, #2
  10675c:	e08c0002 	add	r0, ip, r2
  106760:	e5100010 	ldr	r0, [r0, #-16]
  106764:	e1500001 	cmp	r0, r1
  106768:	1afffff6 	bne	106748 <ada__tags__secondary_tag+0x30>
  10676c:	e79c0002 	ldr	r0, [ip, r2]
  106770:	e8bd8010 	pop	{r4, pc}
  106774:	e3011638 	movw	r1, #5688	; 0x1638
  106778:	e30305f4 	movw	r0, #13812	; 0x35f4
  10677c:	e3401011 	movt	r1, #17
  106780:	e3400011 	movt	r0, #17
  106784:	e59f200c 	ldr	r2, [pc, #12]	; 106798 <ada__tags__secondary_tag+0x80>
  106788:	eb00164a 	bl	10c0b8 <__gnat_raise_exception>
  10678c:	e30013e7 	movw	r1, #999	; 0x3e7
  106790:	e59f0004 	ldr	r0, [pc, #4]	; 10679c <ada__tags__secondary_tag+0x84>
  106794:	eb0017b6 	bl	10c674 <__gnat_rcheck_PE_Explicit_Raise>
  106798:	00111494 	mulseq	r1, r4, r4
  10679c:	00111488 	andseq	r1, r1, r8, lsl #9

001067a0 <ada__tags__set_entry_index>:
  1067a0:	e5103004 	ldr	r3, [r0, #-4]
  1067a4:	e5933024 	ldr	r3, [r3, #36]	; 0x24
  1067a8:	e0831181 	add	r1, r3, r1, lsl #3
  1067ac:	e5012004 	str	r2, [r1, #-4]
  1067b0:	e12fff1e 	bx	lr

001067b4 <ada__tags__set_dynamic_offset_to_top>:
  1067b4:	e3530000 	cmp	r3, #0
  1067b8:	e92d4010 	push	{r4, lr}
  1067bc:	1040c003 	subne	ip, r0, r3
  1067c0:	e1a0e001 	mov	lr, r1
  1067c4:	13e04102 	mvnne	r4, #-2147483648	; 0x80000000
  1067c8:	e59d1008 	ldr	r1, [sp, #8]
  1067cc:	159c0000 	ldrne	r0, [ip]
  1067d0:	15004008 	strne	r4, [r0, #-8]
  1067d4:	e1a0000e 	mov	r0, lr
  1067d8:	e58d1008 	str	r1, [sp, #8]
  1067dc:	e1a01002 	mov	r1, r2
  1067e0:	e8bd4010 	pop	{r4, lr}
  1067e4:	e3a02000 	mov	r2, #0
  1067e8:	eaffffab 	b	10669c <ada__tags__register_interface_offset>

001067ec <ada__tags__set_prim_op_kind>:
  1067ec:	e5103004 	ldr	r3, [r0, #-4]
  1067f0:	e5933024 	ldr	r3, [r3, #36]	; 0x24
  1067f4:	e7c32181 	strb	r2, [r3, r1, lsl #3]
  1067f8:	e12fff1e 	bx	lr

001067fc <ada__tags__unregister_tag>:
  1067fc:	e5103004 	ldr	r3, [r0, #-4]
  106800:	e5930010 	ldr	r0, [r3, #16]
  106804:	eafffc57 	b	105968 <ada__tags__external_tag_htable__removeXn>

00106808 <ada__tags__wide_expanded_name>:
  106808:	e92d4ff0 	push	{r4, r5, r6, r7, r8, r9, sl, fp, lr}
  10680c:	e28db020 	add	fp, sp, #32
  106810:	e1a06000 	mov	r6, r0
  106814:	e24dd024 	sub	sp, sp, #36	; 0x24
  106818:	e24b003c 	sub	r0, fp, #60	; 0x3c
  10681c:	ebfffd71 	bl	105de8 <ada__tags__expanded_name>
  106820:	e51b3038 	ldr	r3, [fp, #-56]	; 0xffffffc8
  106824:	e30325b4 	movw	r2, #13748	; 0x35b4
  106828:	e51b403c 	ldr	r4, [fp, #-60]	; 0xffffffc4
  10682c:	e3402011 	movt	r2, #17
  106830:	e5d20000 	ldrb	r0, [r2]
  106834:	e3a08001 	mov	r8, #1
  106838:	e593e000 	ldr	lr, [r3]
  10683c:	e593c004 	ldr	ip, [r3, #4]
  106840:	e50b802c 	str	r8, [fp, #-44]	; 0xffffffd4
  106844:	e50be034 	str	lr, [fp, #-52]	; 0xffffffcc
  106848:	e15c000e 	cmp	ip, lr
  10684c:	e50bc030 	str	ip, [fp, #-48]	; 0xffffffd0
  106850:	a04c100e 	subge	r1, ip, lr
  106854:	b3a03000 	movlt	r3, #0
  106858:	a2811001 	addge	r1, r1, #1
  10685c:	b1a01003 	movlt	r1, r3
  106860:	a1a03081 	lslge	r3, r1, #1
  106864:	e50b1028 	str	r1, [fp, #-40]	; 0xffffffd8
  106868:	e2833008 	add	r3, r3, #8
  10686c:	e3c33007 	bic	r3, r3, #7
  106870:	e04dd003 	sub	sp, sp, r3
  106874:	e28d7008 	add	r7, sp, #8
  106878:	eb000dbb 	bl	109f6c <system__wch_con__get_wc_encoding_method>
  10687c:	e24b1034 	sub	r1, fp, #52	; 0x34
  106880:	e1a02007 	mov	r2, r7
  106884:	e24b302c 	sub	r3, fp, #44	; 0x2c
  106888:	e58d0000 	str	r0, [sp]
  10688c:	e1a00004 	mov	r0, r4
  106890:	eb000f72 	bl	10a660 <system__wch_stw__string_to_wide_string>
  106894:	e1c05fc0 	bic	r5, r0, r0, asr #31
  106898:	e1a0a000 	mov	sl, r0
  10689c:	e1a05815 	lsl	r5, r5, r8
  1068a0:	e285000b 	add	r0, r5, #11
  1068a4:	e3c00003 	bic	r0, r0, #3
  1068a8:	eb0008ac 	bl	108b60 <system__secondary_stack__ss_allocate>
  1068ac:	e2809008 	add	r9, r0, #8
  1068b0:	e1a04000 	mov	r4, r0
  1068b4:	e5808000 	str	r8, [r0]
  1068b8:	e1a01007 	mov	r1, r7
  1068bc:	e580a004 	str	sl, [r0, #4]
  1068c0:	e1a02005 	mov	r2, r5
  1068c4:	e1a00009 	mov	r0, r9
  1068c8:	fa0022fa 	blx	10f4b8 <memcpy>
  1068cc:	e1a00006 	mov	r0, r6
  1068d0:	e5869000 	str	r9, [r6]
  1068d4:	e5864004 	str	r4, [r6, #4]
  1068d8:	e24bd020 	sub	sp, fp, #32
  1068dc:	e8bd8ff0 	pop	{r4, r5, r6, r7, r8, r9, sl, fp, pc}

001068e0 <ada__tags__wide_wide_expanded_name>:
  1068e0:	e92d4ff0 	push	{r4, r5, r6, r7, r8, r9, sl, fp, lr}
  1068e4:	e28db020 	add	fp, sp, #32
  1068e8:	e1a06000 	mov	r6, r0
  1068ec:	e24dd024 	sub	sp, sp, #36	; 0x24
  1068f0:	e24b003c 	sub	r0, fp, #60	; 0x3c
  1068f4:	ebfffd3b 	bl	105de8 <ada__tags__expanded_name>
  1068f8:	e51b3038 	ldr	r3, [fp, #-56]	; 0xffffffc8
  1068fc:	e30325b4 	movw	r2, #13748	; 0x35b4
  106900:	e51b403c 	ldr	r4, [fp, #-60]	; 0xffffffc4
  106904:	e3402011 	movt	r2, #17
  106908:	e5d20000 	ldrb	r0, [r2]
  10690c:	e3a08001 	mov	r8, #1
  106910:	e593e000 	ldr	lr, [r3]
  106914:	e593c004 	ldr	ip, [r3, #4]
  106918:	e50b802c 	str	r8, [fp, #-44]	; 0xffffffd4
  10691c:	e50be034 	str	lr, [fp, #-52]	; 0xffffffcc
  106920:	e15c000e 	cmp	ip, lr
  106924:	e50bc030 	str	ip, [fp, #-48]	; 0xffffffd0
  106928:	a04c100e 	subge	r1, ip, lr
  10692c:	b3a03000 	movlt	r3, #0
  106930:	a2811001 	addge	r1, r1, #1
  106934:	b1a01003 	movlt	r1, r3
  106938:	a1a03101 	lslge	r3, r1, #2
  10693c:	e50b1028 	str	r1, [fp, #-40]	; 0xffffffd8
  106940:	e283300a 	add	r3, r3, #10
  106944:	e3c33007 	bic	r3, r3, #7
  106948:	e04dd003 	sub	sp, sp, r3
  10694c:	e28d7008 	add	r7, sp, #8
  106950:	eb000d85 	bl	109f6c <system__wch_con__get_wc_encoding_method>
  106954:	e24b1034 	sub	r1, fp, #52	; 0x34
  106958:	e1a02007 	mov	r2, r7
  10695c:	e24b302c 	sub	r3, fp, #44	; 0x2c
  106960:	e58d0000 	str	r0, [sp]
  106964:	e1a00004 	mov	r0, r4
  106968:	eb000f64 	bl	10a700 <system__wch_stw__string_to_wide_wide_string>
  10696c:	e1c05fc0 	bic	r5, r0, r0, asr #31
  106970:	e1a0a000 	mov	sl, r0
  106974:	e1a05105 	lsl	r5, r5, #2
  106978:	e2850008 	add	r0, r5, #8
  10697c:	eb000877 	bl	108b60 <system__secondary_stack__ss_allocate>
  106980:	e2809008 	add	r9, r0, #8
  106984:	e1a04000 	mov	r4, r0
  106988:	e5808000 	str	r8, [r0]
  10698c:	e1a01007 	mov	r1, r7
  106990:	e580a004 	str	sl, [r0, #4]
  106994:	e1a02005 	mov	r2, r5
  106998:	e1a00009 	mov	r0, r9
  10699c:	fa0022c5 	blx	10f4b8 <memcpy>
  1069a0:	e1a00006 	mov	r0, r6
  1069a4:	e5869000 	str	r9, [r6]
  1069a8:	e5864004 	str	r4, [r6, #4]
  1069ac:	e24bd020 	sub	sp, fp, #32
  1069b0:	e8bd8ff0 	pop	{r4, r5, r6, r7, r8, r9, sl, fp, pc}

001069b4 <ada__tags___elabb>:
  1069b4:	e59f3014 	ldr	r3, [pc, #20]	; 1069d0 <ada__tags___elabb+0x1c>
  1069b8:	e3a01000 	mov	r1, #0
  1069bc:	e2832c01 	add	r2, r3, #256	; 0x100
  1069c0:	e5a31004 	str	r1, [r3, #4]!
  1069c4:	e1530002 	cmp	r3, r2
  1069c8:	1afffffc 	bne	1069c0 <ada__tags___elabb+0xc>
  1069cc:	e12fff1e 	bx	lr
  1069d0:	00121558 	andseq	r1, r2, r8, asr r5

001069d4 <read_encoded_value_with_base>:
  1069d4:	e3500050 	cmp	r0, #80	; 0x50
  1069d8:	e92d4070 	push	{r4, r5, r6, lr}
  1069dc:	0a000023 	beq	106a70 <read_encoded_value_with_base+0x9c>
  1069e0:	e200c00f 	and	ip, r0, #15
  1069e4:	e35c000c 	cmp	ip, #12
  1069e8:	979ff10c 	ldrls	pc, [pc, ip, lsl #2]
  1069ec:	ea00004b 	b	106b20 <read_encoded_value_with_base+0x14c>
  1069f0:	00106a24 	andseq	r6, r0, r4, lsr #20
  1069f4:	00106ae4 	andseq	r6, r0, r4, ror #21
  1069f8:	00106b0c 	andseq	r6, r0, ip, lsl #22
  1069fc:	00106a24 	andseq	r6, r0, r4, lsr #20
  106a00:	00106a80 	andseq	r6, r0, r0, lsl #21
  106a04:	00106b20 	andseq	r6, r0, r0, lsr #22
  106a08:	00106b20 	andseq	r6, r0, r0, lsr #22
  106a0c:	00106b20 	andseq	r6, r0, r0, lsr #22
  106a10:	00106b20 	andseq	r6, r0, r0, lsr #22
  106a14:	00106a8c 	andseq	r6, r0, ip, lsl #21
  106a18:	00106acc 	andseq	r6, r0, ip, asr #21
  106a1c:	00106a24 	andseq	r6, r0, r4, lsr #20
  106a20:	00106a80 	andseq	r6, r0, r0, lsl #21
  106a24:	e5d2c000 	ldrb	ip, [r2]
  106a28:	e282e004 	add	lr, r2, #4
  106a2c:	e5d26001 	ldrb	r6, [r2, #1]
  106a30:	e5d25002 	ldrb	r5, [r2, #2]
  106a34:	e5d24003 	ldrb	r4, [r2, #3]
  106a38:	e18cc406 	orr	ip, ip, r6, lsl #8
  106a3c:	e18cc805 	orr	ip, ip, r5, lsl #16
  106a40:	e18ccc04 	orr	ip, ip, r4, lsl #24
  106a44:	e35c0000 	cmp	ip, #0
  106a48:	0a000005 	beq	106a64 <read_encoded_value_with_base+0x90>
  106a4c:	e2004070 	and	r4, r0, #112	; 0x70
  106a50:	e3540010 	cmp	r4, #16
  106a54:	01a01002 	moveq	r1, r2
  106a58:	e3100080 	tst	r0, #128	; 0x80
  106a5c:	e08cc001 	add	ip, ip, r1
  106a60:	159cc000 	ldrne	ip, [ip]
  106a64:	e583c000 	str	ip, [r3]
  106a68:	e1a0000e 	mov	r0, lr
  106a6c:	e8bd8070 	pop	{r4, r5, r6, pc}
  106a70:	e2822003 	add	r2, r2, #3
  106a74:	e3c2e003 	bic	lr, r2, #3
  106a78:	e49ec004 	ldr	ip, [lr], #4
  106a7c:	eafffff8 	b	106a64 <read_encoded_value_with_base+0x90>
  106a80:	e5d2c000 	ldrb	ip, [r2]
  106a84:	e282e008 	add	lr, r2, #8
  106a88:	eaffffe7 	b	106a2c <read_encoded_value_with_base+0x58>
  106a8c:	e3a0c000 	mov	ip, #0
  106a90:	e1a0e002 	mov	lr, r2
  106a94:	e1a0400c 	mov	r4, ip
  106a98:	e4de5001 	ldrb	r5, [lr], #1
  106a9c:	e3150080 	tst	r5, #128	; 0x80
  106aa0:	e205607f 	and	r6, r5, #127	; 0x7f
  106aa4:	e18cc416 	orr	ip, ip, r6, lsl r4
  106aa8:	e2844007 	add	r4, r4, #7
  106aac:	1afffff9 	bne	106a98 <read_encoded_value_with_base+0xc4>
  106ab0:	e354001f 	cmp	r4, #31
  106ab4:	8affffe2 	bhi	106a44 <read_encoded_value_with_base+0x70>
  106ab8:	e3150040 	tst	r5, #64	; 0x40
  106abc:	0affffe0 	beq	106a44 <read_encoded_value_with_base+0x70>
  106ac0:	e3e05000 	mvn	r5, #0
  106ac4:	e18cc415 	orr	ip, ip, r5, lsl r4
  106ac8:	eaffffdf 	b	106a4c <read_encoded_value_with_base+0x78>
  106acc:	e5d2c000 	ldrb	ip, [r2]
  106ad0:	e282e002 	add	lr, r2, #2
  106ad4:	e5d24001 	ldrb	r4, [r2, #1]
  106ad8:	e18cc404 	orr	ip, ip, r4, lsl #8
  106adc:	e6bfc07c 	sxth	ip, ip
  106ae0:	eaffffd7 	b	106a44 <read_encoded_value_with_base+0x70>
  106ae4:	e3a0c000 	mov	ip, #0
  106ae8:	e1a0e002 	mov	lr, r2
  106aec:	e1a0500c 	mov	r5, ip
  106af0:	e4de4001 	ldrb	r4, [lr], #1
  106af4:	e3140080 	tst	r4, #128	; 0x80
  106af8:	e204407f 	and	r4, r4, #127	; 0x7f
  106afc:	e18cc514 	orr	ip, ip, r4, lsl r5
  106b00:	e2855007 	add	r5, r5, #7
  106b04:	1afffff9 	bne	106af0 <read_encoded_value_with_base+0x11c>
  106b08:	eaffffcd 	b	106a44 <read_encoded_value_with_base+0x70>
  106b0c:	e5d2c000 	ldrb	ip, [r2]
  106b10:	e282e002 	add	lr, r2, #2
  106b14:	e5d24001 	ldrb	r4, [r2, #1]
  106b18:	e18cc404 	orr	ip, ip, r4, lsl #8
  106b1c:	eaffffc8 	b	106a44 <read_encoded_value_with_base+0x70>
  106b20:	eb0007b6 	bl	108a00 <abort>

00106b24 <base_of_encoded_value.part.2>:
  106b24:	e2000070 	and	r0, r0, #112	; 0x70
  106b28:	e3500020 	cmp	r0, #32
  106b2c:	0a000010 	beq	106b74 <base_of_encoded_value.part.2+0x50>
  106b30:	9a000009 	bls	106b5c <base_of_encoded_value.part.2+0x38>
  106b34:	e3500040 	cmp	r0, #64	; 0x40
  106b38:	0a000005 	beq	106b54 <base_of_encoded_value.part.2+0x30>
  106b3c:	e3500050 	cmp	r0, #80	; 0x50
  106b40:	0a000009 	beq	106b6c <base_of_encoded_value.part.2+0x48>
  106b44:	e3500030 	cmp	r0, #48	; 0x30
  106b48:	1a00000b 	bne	106b7c <base_of_encoded_value.part.2+0x58>
  106b4c:	e1a00001 	mov	r0, r1
  106b50:	ea002a16 	b	1113b0 <___Unwind_GetDataRelBase_from_arm>
  106b54:	e1a00001 	mov	r0, r1
  106b58:	ea002a12 	b	1113a8 <___Unwind_GetRegionStart_from_arm>
  106b5c:	e3500000 	cmp	r0, #0
  106b60:	0a000001 	beq	106b6c <base_of_encoded_value.part.2+0x48>
  106b64:	e3500010 	cmp	r0, #16
  106b68:	1a000003 	bne	106b7c <base_of_encoded_value.part.2+0x58>
  106b6c:	e3a00000 	mov	r0, #0
  106b70:	e12fff1e 	bx	lr
  106b74:	e1a00001 	mov	r0, r1
  106b78:	ea002a08 	b	1113a0 <___Unwind_GetTextRelBase_from_arm>
  106b7c:	e92d4010 	push	{r4, lr}
  106b80:	eb00079e 	bl	108a00 <abort>

00106b84 <__gnat_personality_v0>:
  106b84:	e2003003 	and	r3, r0, #3
  106b88:	e92d4ff0 	push	{r4, r5, r6, r7, r8, r9, sl, fp, lr}
  106b8c:	e3530001 	cmp	r3, #1
  106b90:	e24dd054 	sub	sp, sp, #84	; 0x54
  106b94:	e1a05000 	mov	r5, r0
  106b98:	e1a08001 	mov	r8, r1
  106b9c:	e1a07002 	mov	r7, r2
  106ba0:	0a0000a3 	beq	106e34 <__gnat_personality_v0+0x2b0>
  106ba4:	3a00000c 	bcc	106bdc <__gnat_personality_v0+0x58>
  106ba8:	e3530002 	cmp	r3, #2
  106bac:	0a000002 	beq	106bbc <__gnat_personality_v0+0x38>
  106bb0:	e3a00009 	mov	r0, #9
  106bb4:	e28dd054 	add	sp, sp, #84	; 0x54
  106bb8:	e8bd8ff0 	pop	{r4, r5, r6, r7, r8, r9, sl, fp, pc}
  106bbc:	e1a01002 	mov	r1, r2
  106bc0:	e1a00008 	mov	r0, r8
  106bc4:	fa00297a 	blx	1111b4 <__gnu_unwind_frame>
  106bc8:	e3500000 	cmp	r0, #0
  106bcc:	03a00008 	moveq	r0, #8
  106bd0:	13a00009 	movne	r0, #9
  106bd4:	e28dd054 	add	sp, sp, #84	; 0x54
  106bd8:	e8bd8ff0 	pop	{r4, r5, r6, r7, r8, r9, sl, fp, pc}
  106bdc:	e3a09001 	mov	r9, #1
  106be0:	e28d2050 	add	r2, sp, #80	; 0x50
  106be4:	e3a03000 	mov	r3, #0
  106be8:	e5228034 	str	r8, [r2, #-52]!	; 0xffffffcc
  106bec:	e1a01003 	mov	r1, r3
  106bf0:	e58d2000 	str	r2, [sp]
  106bf4:	e1a00007 	mov	r0, r7
  106bf8:	e3a0200c 	mov	r2, #12
  106bfc:	fa00269a 	blx	11066c <_Unwind_VRS_Set>
  106c00:	e3570000 	cmp	r7, #0
  106c04:	058d7030 	streq	r7, [sp, #48]	; 0x30
  106c08:	0a000081 	beq	106e14 <__gnat_personality_v0+0x290>
  106c0c:	e1a00007 	mov	r0, r7
  106c10:	fa002975 	blx	1111ec <_Unwind_GetLanguageSpecificData>
  106c14:	e3500000 	cmp	r0, #0
  106c18:	e1a06000 	mov	r6, r0
  106c1c:	e58d0030 	str	r0, [sp, #48]	; 0x30
  106c20:	0a00007b 	beq	106e14 <__gnat_personality_v0+0x290>
  106c24:	e1a00007 	mov	r0, r7
  106c28:	e2864001 	add	r4, r6, #1
  106c2c:	fa00296b 	blx	1111e0 <_Unwind_GetRegionStart>
  106c30:	e58d002c 	str	r0, [sp, #44]	; 0x2c
  106c34:	e5d66000 	ldrb	r6, [r6]
  106c38:	e35600ff 	cmp	r6, #255	; 0xff
  106c3c:	058d003c 	streq	r0, [sp, #60]	; 0x3c
  106c40:	0a000008 	beq	106c68 <__gnat_personality_v0+0xe4>
  106c44:	e1a01007 	mov	r1, r7
  106c48:	e1a00006 	mov	r0, r6
  106c4c:	ebffffb4 	bl	106b24 <base_of_encoded_value.part.2>
  106c50:	e1a02004 	mov	r2, r4
  106c54:	e1a01000 	mov	r1, r0
  106c58:	e28d303c 	add	r3, sp, #60	; 0x3c
  106c5c:	e1a00006 	mov	r0, r6
  106c60:	ebffff5b 	bl	1069d4 <read_encoded_value_with_base>
  106c64:	e1a04000 	mov	r4, r0
  106c68:	e5d40000 	ldrb	r0, [r4]
  106c6c:	e2844001 	add	r4, r4, #1
  106c70:	e35000ff 	cmp	r0, #255	; 0xff
  106c74:	e5cd0044 	strb	r0, [sp, #68]	; 0x44
  106c78:	0a0000a4 	beq	106f10 <__gnat_personality_v0+0x38c>
  106c7c:	e3a01000 	mov	r1, #0
  106c80:	e1a02001 	mov	r2, r1
  106c84:	e4d43001 	ldrb	r3, [r4], #1
  106c88:	e3130080 	tst	r3, #128	; 0x80
  106c8c:	e203307f 	and	r3, r3, #127	; 0x7f
  106c90:	e1811213 	orr	r1, r1, r3, lsl r2
  106c94:	e2822007 	add	r2, r2, #7
  106c98:	1afffff9 	bne	106c84 <__gnat_personality_v0+0x100>
  106c9c:	e0843001 	add	r3, r4, r1
  106ca0:	e1a01007 	mov	r1, r7
  106ca4:	e58d3048 	str	r3, [sp, #72]	; 0x48
  106ca8:	ebffff9d 	bl	106b24 <base_of_encoded_value.part.2>
  106cac:	e58d004c 	str	r0, [sp, #76]	; 0x4c
  106cb0:	e3a00000 	mov	r0, #0
  106cb4:	e5d43000 	ldrb	r3, [r4]
  106cb8:	e2842001 	add	r2, r4, #1
  106cbc:	e1a01000 	mov	r1, r0
  106cc0:	e5cd3034 	strb	r3, [sp, #52]	; 0x34
  106cc4:	e4d23001 	ldrb	r3, [r2], #1
  106cc8:	e3130080 	tst	r3, #128	; 0x80
  106ccc:	e203307f 	and	r3, r3, #127	; 0x7f
  106cd0:	e1800113 	orr	r0, r0, r3, lsl r1
  106cd4:	e2811007 	add	r1, r1, #7
  106cd8:	1afffff9 	bne	106cc4 <__gnat_personality_v0+0x140>
  106cdc:	e59d3030 	ldr	r3, [sp, #48]	; 0x30
  106ce0:	e0820000 	add	r0, r2, r0
  106ce4:	e58d0040 	str	r0, [sp, #64]	; 0x40
  106ce8:	e58d2038 	str	r2, [sp, #56]	; 0x38
  106cec:	e3530000 	cmp	r3, #0
  106cf0:	0a000047 	beq	106e14 <__gnat_personality_v0+0x290>
  106cf4:	e3a03000 	mov	r3, #0
  106cf8:	e28d2028 	add	r2, sp, #40	; 0x28
  106cfc:	e58d2000 	str	r2, [sp]
  106d00:	e1a01003 	mov	r1, r3
  106d04:	e3a0200f 	mov	r2, #15
  106d08:	e1a00007 	mov	r0, r7
  106d0c:	fa002642 	blx	11061c <_Unwind_VRS_Get>
  106d10:	e59d4038 	ldr	r4, [sp, #56]	; 0x38
  106d14:	e2056008 	and	r6, r5, #8
  106d18:	e59d3040 	ldr	r3, [sp, #64]	; 0x40
  106d1c:	e1866009 	orr	r6, r6, r9
  106d20:	e59d5028 	ldr	r5, [sp, #40]	; 0x28
  106d24:	e1540003 	cmp	r4, r3
  106d28:	e3c55001 	bic	r5, r5, #1
  106d2c:	e2455001 	sub	r5, r5, #1
  106d30:	2a000037 	bcs	106e14 <__gnat_personality_v0+0x290>
  106d34:	e5dd9034 	ldrb	r9, [sp, #52]	; 0x34
  106d38:	e3a01000 	mov	r1, #0
  106d3c:	e35900ff 	cmp	r9, #255	; 0xff
  106d40:	0a000002 	beq	106d50 <__gnat_personality_v0+0x1cc>
  106d44:	e1a00009 	mov	r0, r9
  106d48:	ebffff75 	bl	106b24 <base_of_encoded_value.part.2>
  106d4c:	e1a01000 	mov	r1, r0
  106d50:	e1a02004 	mov	r2, r4
  106d54:	e1a00009 	mov	r0, r9
  106d58:	e28d3020 	add	r3, sp, #32
  106d5c:	ebffff1c 	bl	1069d4 <read_encoded_value_with_base>
  106d60:	e5dd4034 	ldrb	r4, [sp, #52]	; 0x34
  106d64:	e1a09000 	mov	r9, r0
  106d68:	e3a01000 	mov	r1, #0
  106d6c:	e35400ff 	cmp	r4, #255	; 0xff
  106d70:	0a000002 	beq	106d80 <__gnat_personality_v0+0x1fc>
  106d74:	e1a00004 	mov	r0, r4
  106d78:	ebffff69 	bl	106b24 <base_of_encoded_value.part.2>
  106d7c:	e1a01000 	mov	r1, r0
  106d80:	e1a02009 	mov	r2, r9
  106d84:	e1a00004 	mov	r0, r4
  106d88:	e28d3024 	add	r3, sp, #36	; 0x24
  106d8c:	ebffff10 	bl	1069d4 <read_encoded_value_with_base>
  106d90:	e5dd4034 	ldrb	r4, [sp, #52]	; 0x34
  106d94:	e1a09000 	mov	r9, r0
  106d98:	e3a01000 	mov	r1, #0
  106d9c:	e35400ff 	cmp	r4, #255	; 0xff
  106da0:	0a000002 	beq	106db0 <__gnat_personality_v0+0x22c>
  106da4:	e1a00004 	mov	r0, r4
  106da8:	ebffff5d 	bl	106b24 <base_of_encoded_value.part.2>
  106dac:	e1a01000 	mov	r1, r0
  106db0:	e1a02009 	mov	r2, r9
  106db4:	e1a00004 	mov	r0, r4
  106db8:	e28d3028 	add	r3, sp, #40	; 0x28
  106dbc:	ebffff04 	bl	1069d4 <read_encoded_value_with_base>
  106dc0:	e3a02000 	mov	r2, #0
  106dc4:	e1a04000 	mov	r4, r0
  106dc8:	e1a01002 	mov	r1, r2
  106dcc:	e4d43001 	ldrb	r3, [r4], #1
  106dd0:	e3130080 	tst	r3, #128	; 0x80
  106dd4:	e203307f 	and	r3, r3, #127	; 0x7f
  106dd8:	e1822113 	orr	r2, r2, r3, lsl r1
  106ddc:	e2811007 	add	r1, r1, #7
  106de0:	1afffff9 	bne	106dcc <__gnat_personality_v0+0x248>
  106de4:	e59d302c 	ldr	r3, [sp, #44]	; 0x2c
  106de8:	e59d1020 	ldr	r1, [sp, #32]
  106dec:	e0833001 	add	r3, r3, r1
  106df0:	e1550003 	cmp	r5, r3
  106df4:	3a000006 	bcc	106e14 <__gnat_personality_v0+0x290>
  106df8:	e59d1024 	ldr	r1, [sp, #36]	; 0x24
  106dfc:	e0833001 	add	r3, r3, r1
  106e00:	e1550003 	cmp	r5, r3
  106e04:	3a00000c 	bcc	106e3c <__gnat_personality_v0+0x2b8>
  106e08:	e59d3040 	ldr	r3, [sp, #64]	; 0x40
  106e0c:	e1540003 	cmp	r4, r3
  106e10:	3affffc7 	bcc	106d34 <__gnat_personality_v0+0x1b0>
  106e14:	e1a01007 	mov	r1, r7
  106e18:	e1a00008 	mov	r0, r8
  106e1c:	fa0028e4 	blx	1111b4 <__gnu_unwind_frame>
  106e20:	e3500000 	cmp	r0, #0
  106e24:	1affff61 	bne	106bb0 <__gnat_personality_v0+0x2c>
  106e28:	e3a00008 	mov	r0, #8
  106e2c:	e28dd054 	add	sp, sp, #84	; 0x54
  106e30:	e8bd8ff0 	pop	{r4, r5, r6, r7, r8, r9, sl, fp, pc}
  106e34:	e3a09002 	mov	r9, #2
  106e38:	eaffff68 	b	106be0 <__gnat_personality_v0+0x5c>
  106e3c:	e59d3028 	ldr	r3, [sp, #40]	; 0x28
  106e40:	e3530000 	cmp	r3, #0
  106e44:	0afffff2 	beq	106e14 <__gnat_personality_v0+0x290>
  106e48:	e59d103c 	ldr	r1, [sp, #60]	; 0x3c
  106e4c:	e3520000 	cmp	r2, #0
  106e50:	e0833001 	add	r3, r3, r1
  106e54:	e58d3014 	str	r3, [sp, #20]
  106e58:	1a000030 	bne	106f20 <__gnat_personality_v0+0x39c>
  106e5c:	e59d3014 	ldr	r3, [sp, #20]
  106e60:	e3530000 	cmp	r3, #0
  106e64:	0affffea 	beq	106e14 <__gnat_personality_v0+0x290>
  106e68:	e2169001 	ands	r9, r6, #1
  106e6c:	1affffe8 	bne	106e14 <__gnat_personality_v0+0x290>
  106e70:	e3a03000 	mov	r3, #0
  106e74:	e28d2020 	add	r2, sp, #32
  106e78:	e1a01003 	mov	r1, r3
  106e7c:	e58d2000 	str	r2, [sp]
  106e80:	e1a00007 	mov	r0, r7
  106e84:	e1a02003 	mov	r2, r3
  106e88:	e58d8020 	str	r8, [sp, #32]
  106e8c:	fa0025f6 	blx	11066c <_Unwind_VRS_Set>
  106e90:	e3a03000 	mov	r3, #0
  106e94:	e28d2024 	add	r2, sp, #36	; 0x24
  106e98:	e1a01003 	mov	r1, r3
  106e9c:	e58d2000 	str	r2, [sp]
  106ea0:	e1a00007 	mov	r0, r7
  106ea4:	e3a02001 	mov	r2, #1
  106ea8:	e58d9024 	str	r9, [sp, #36]	; 0x24
  106eac:	fa0025ee 	blx	11066c <_Unwind_VRS_Set>
  106eb0:	e3a03000 	mov	r3, #0
  106eb4:	e28d2028 	add	r2, sp, #40	; 0x28
  106eb8:	e1a01003 	mov	r1, r3
  106ebc:	e58d2000 	str	r2, [sp]
  106ec0:	e1a00007 	mov	r0, r7
  106ec4:	e3a0200f 	mov	r2, #15
  106ec8:	fa0025d3 	blx	11061c <_Unwind_VRS_Get>
  106ecc:	e59dc028 	ldr	ip, [sp, #40]	; 0x28
  106ed0:	e3a03000 	mov	r3, #0
  106ed4:	e59de014 	ldr	lr, [sp, #20]
  106ed8:	e28d2028 	add	r2, sp, #40	; 0x28
  106edc:	e1a01003 	mov	r1, r3
  106ee0:	e58d2000 	str	r2, [sp]
  106ee4:	e20cc001 	and	ip, ip, #1
  106ee8:	e3a0200f 	mov	r2, #15
  106eec:	e18cc00e 	orr	ip, ip, lr
  106ef0:	e1a00007 	mov	r0, r7
  106ef4:	e58dc028 	str	ip, [sp, #40]	; 0x28
  106ef8:	fa0025db 	blx	11066c <_Unwind_VRS_Set>
  106efc:	e1a01006 	mov	r1, r6
  106f00:	e1a00008 	mov	r0, r8
  106f04:	eb0010fa 	bl	10b2f4 <__gnat_setup_current_excep>
  106f08:	e3a00007 	mov	r0, #7
  106f0c:	eaffff28 	b	106bb4 <__gnat_personality_v0+0x30>
  106f10:	e3a03000 	mov	r3, #0
  106f14:	e1a00003 	mov	r0, r3
  106f18:	e58d3048 	str	r3, [sp, #72]	; 0x48
  106f1c:	eaffff62 	b	106cac <__gnat_personality_v0+0x128>
  106f20:	e3530000 	cmp	r3, #0
  106f24:	e59d3040 	ldr	r3, [sp, #64]	; 0x40
  106f28:	0affffb9 	beq	106e14 <__gnat_personality_v0+0x290>
  106f2c:	e2422001 	sub	r2, r2, #1
  106f30:	e0932002 	adds	r2, r3, r2
  106f34:	0affffcb 	beq	106e68 <__gnat_personality_v0+0x2e4>
  106f38:	e301370c 	movw	r3, #5900	; 0x170c
  106f3c:	e302b669 	movw	fp, #9833	; 0x2669
  106f40:	e3403011 	movt	r3, #17
  106f44:	e3021668 	movw	r1, #9832	; 0x2668
  106f48:	e58d300c 	str	r3, [sp, #12]
  106f4c:	e3a0a001 	mov	sl, #1
  106f50:	e1a03002 	mov	r3, r2
  106f54:	e340b011 	movt	fp, #17
  106f58:	e3401011 	movt	r1, #17
  106f5c:	e58db008 	str	fp, [sp, #8]
  106f60:	e58d1010 	str	r1, [sp, #16]
  106f64:	e3a0c000 	mov	ip, #0
  106f68:	e1a0200c 	mov	r2, ip
  106f6c:	ea000000 	b	106f74 <__gnat_personality_v0+0x3f0>
  106f70:	e1a03004 	mov	r3, r4
  106f74:	e1a04003 	mov	r4, r3
  106f78:	e4d41001 	ldrb	r1, [r4], #1
  106f7c:	e3110080 	tst	r1, #128	; 0x80
  106f80:	e201007f 	and	r0, r1, #127	; 0x7f
  106f84:	e18cc210 	orr	ip, ip, r0, lsl r2
  106f88:	e2822007 	add	r2, r2, #7
  106f8c:	1afffff7 	bne	106f70 <__gnat_personality_v0+0x3ec>
  106f90:	e352001f 	cmp	r2, #31
  106f94:	8a000002 	bhi	106fa4 <__gnat_personality_v0+0x420>
  106f98:	e3110040 	tst	r1, #64	; 0x40
  106f9c:	13e01000 	mvnne	r1, #0
  106fa0:	118cc211 	orrne	ip, ip, r1, lsl r2
  106fa4:	e3a05000 	mov	r5, #0
  106fa8:	e1a02005 	mov	r2, r5
  106fac:	e1a0900c 	mov	r9, ip
  106fb0:	e5f31001 	ldrb	r1, [r3, #1]!
  106fb4:	e3110080 	tst	r1, #128	; 0x80
  106fb8:	e201007f 	and	r0, r1, #127	; 0x7f
  106fbc:	e1855210 	orr	r5, r5, r0, lsl r2
  106fc0:	e2822007 	add	r2, r2, #7
  106fc4:	1afffff9 	bne	106fb0 <__gnat_personality_v0+0x42c>
  106fc8:	e352001f 	cmp	r2, #31
  106fcc:	8a000002 	bhi	106fdc <__gnat_personality_v0+0x458>
  106fd0:	e3110040 	tst	r1, #64	; 0x40
  106fd4:	13e03000 	mvnne	r3, #0
  106fd8:	11855213 	orrne	r5, r5, r3, lsl r2
  106fdc:	e35c0000 	cmp	ip, #0
  106fe0:	0a000006 	beq	107000 <__gnat_personality_v0+0x47c>
  106fe4:	da000001 	ble	106ff0 <__gnat_personality_v0+0x46c>
  106fe8:	e2162008 	ands	r2, r6, #8
  106fec:	0a000005 	beq	107008 <__gnat_personality_v0+0x484>
  106ff0:	e3550000 	cmp	r5, #0
  106ff4:	0a000056 	beq	107154 <__gnat_personality_v0+0x5d0>
  106ff8:	e0843005 	add	r3, r4, r5
  106ffc:	eaffffd8 	b	106f64 <__gnat_personality_v0+0x3e0>
  107000:	e3a0a002 	mov	sl, #2
  107004:	eafffff9 	b	106ff0 <__gnat_personality_v0+0x46c>
  107008:	e5dd0044 	ldrb	r0, [sp, #68]	; 0x44
  10700c:	e35000ff 	cmp	r0, #255	; 0xff
  107010:	0a00000a 	beq	107040 <__gnat_personality_v0+0x4bc>
  107014:	e2003007 	and	r3, r0, #7
  107018:	e3530004 	cmp	r3, #4
  10701c:	979ff103 	ldrls	pc, [pc, r3, lsl #2]
  107020:	ea00004e 	b	107160 <__gnat_personality_v0+0x5dc>
  107024:	001070f8 	ldrsheq	r7, [r0], -r8
  107028:	00107160 	andseq	r7, r0, r0, ror #2
  10702c:	00107104 	andseq	r7, r0, r4, lsl #2
  107030:	001070f8 	ldrsheq	r7, [r0], -r8
  107034:	00107038 	andseq	r7, r0, r8, lsr r0
  107038:	e1a0c18c 	lsl	ip, ip, #3
  10703c:	e26c2000 	rsb	r2, ip, #0
  107040:	e59dc048 	ldr	ip, [sp, #72]	; 0x48
  107044:	e28d3028 	add	r3, sp, #40	; 0x28
  107048:	e59d104c 	ldr	r1, [sp, #76]	; 0x4c
  10704c:	e08c2002 	add	r2, ip, r2
  107050:	ebfffe5f 	bl	1069d4 <read_encoded_value_with_base>
  107054:	e59db028 	ldr	fp, [sp, #40]	; 0x28
  107058:	e59d3008 	ldr	r3, [sp, #8]
  10705c:	e15b0003 	cmp	fp, r3
  107060:	0a00001c 	beq	1070d8 <__gnat_personality_v0+0x554>
  107064:	e3a02008 	mov	r2, #8
  107068:	e59d100c 	ldr	r1, [sp, #12]
  10706c:	e1a00008 	mov	r0, r8
  107070:	fa0020f8 	blx	10f458 <memcmp>
  107074:	e3500000 	cmp	r0, #0
  107078:	0a000024 	beq	107110 <__gnat_personality_v0+0x58c>
  10707c:	e59d3010 	ldr	r3, [sp, #16]
  107080:	e15b0003 	cmp	fp, r3
  107084:	0a000013 	beq	1070d8 <__gnat_personality_v0+0x554>
  107088:	e3032558 	movw	r2, #13656	; 0x3558
  10708c:	e3402011 	movt	r2, #17
  107090:	e15b0002 	cmp	fp, r2
  107094:	0a00000f 	beq	1070d8 <__gnat_personality_v0+0x554>
  107098:	e3011714 	movw	r1, #5908	; 0x1714
  10709c:	e3a02008 	mov	r2, #8
  1070a0:	e3401011 	movt	r1, #17
  1070a4:	e1a00008 	mov	r0, r8
  1070a8:	fa0020ea 	blx	10f458 <memcmp>
  1070ac:	e3500000 	cmp	r0, #0
  1070b0:	1affffce 	bne	106ff0 <__gnat_personality_v0+0x46c>
  1070b4:	e1a0000b 	mov	r0, fp
  1070b8:	eb0010de 	bl	10b438 <__gnat_language_for>
  1070bc:	e3500043 	cmp	r0, #67	; 0x43
  1070c0:	1affffca 	bne	106ff0 <__gnat_personality_v0+0x46c>
  1070c4:	e1a0000b 	mov	r0, fp
  1070c8:	eb0010d5 	bl	10b424 <__gnat_foreign_data_for>
  1070cc:	e5183020 	ldr	r3, [r8, #-32]	; 0xffffffe0
  1070d0:	e1530000 	cmp	r3, r0
  1070d4:	1affffc5 	bne	106ff0 <__gnat_personality_v0+0x46c>
  1070d8:	e3160001 	tst	r6, #1
  1070dc:	0affff63 	beq	106e70 <__gnat_personality_v0+0x2ec>
  1070e0:	e1a01006 	mov	r1, r6
  1070e4:	e1a00008 	mov	r0, r8
  1070e8:	eb001081 	bl	10b2f4 <__gnat_setup_current_excep>
  1070ec:	eb001151 	bl	10b638 <__gnat_notify_handled_exception>
  1070f0:	e3a00006 	mov	r0, #6
  1070f4:	eafffeae 	b	106bb4 <__gnat_personality_v0+0x30>
  1070f8:	e1a0210c 	lsl	r2, ip, #2
  1070fc:	e2622000 	rsb	r2, r2, #0
  107100:	eaffffce 	b	107040 <__gnat_personality_v0+0x4bc>
  107104:	e1a0208c 	lsl	r2, ip, #1
  107108:	e2622000 	rsb	r2, r2, #0
  10710c:	eaffffcb 	b	107040 <__gnat_personality_v0+0x4bc>
  107110:	e1a00008 	mov	r0, r8
  107114:	eb0010c0 	bl	10b41c <__gnat_eid_for>
  107118:	e302266a 	movw	r2, #9834	; 0x266a
  10711c:	e3402011 	movt	r2, #17
  107120:	e15b0002 	cmp	fp, r2
  107124:	0a00000e 	beq	107164 <__gnat_personality_v0+0x5e0>
  107128:	e1a00008 	mov	r0, r8
  10712c:	eb0010ba 	bl	10b41c <__gnat_eid_for>
  107130:	e150000b 	cmp	r0, fp
  107134:	0affffe7 	beq	1070d8 <__gnat_personality_v0+0x554>
  107138:	e59d3010 	ldr	r3, [sp, #16]
  10713c:	e15b0003 	cmp	fp, r3
  107140:	1affffaa 	bne	106ff0 <__gnat_personality_v0+0x46c>
  107144:	eb0010b8 	bl	10b42c <__gnat_is_handled_by_others>
  107148:	e3500000 	cmp	r0, #0
  10714c:	0affffa7 	beq	106ff0 <__gnat_personality_v0+0x46c>
  107150:	eaffffe0 	b	1070d8 <__gnat_personality_v0+0x554>
  107154:	e35a0001 	cmp	sl, #1
  107158:	1affff42 	bne	106e68 <__gnat_personality_v0+0x2e4>
  10715c:	eaffff2c 	b	106e14 <__gnat_personality_v0+0x290>
  107160:	eb000626 	bl	108a00 <abort>
  107164:	e3160001 	tst	r6, #1
  107168:	0affff40 	beq	106e70 <__gnat_personality_v0+0x2ec>
  10716c:	e1a01006 	mov	r1, r6
  107170:	e1a00008 	mov	r0, r8
  107174:	eb00105e 	bl	10b2f4 <__gnat_setup_current_excep>
  107178:	eb001132 	bl	10b648 <__gnat_notify_unhandled_exception>
  10717c:	eaffffdb 	b	1070f0 <__gnat_personality_v0+0x56c>

00107180 <__gnat_cleanupunwind_handler>:
  107180:	e3110010 	tst	r1, #16
  107184:	1a000001 	bne	107190 <__gnat_cleanupunwind_handler+0x10>
  107188:	e3a00000 	mov	r0, #0
  10718c:	e12fff1e 	bx	lr
  107190:	e1a00003 	mov	r0, r3
  107194:	e92d4010 	push	{r4, lr}
  107198:	eb00109b 	bl	10b40c <__gnat_unhandled_except_handler>
  10719c:	e3a00000 	mov	r0, #0
  1071a0:	e8bd8010 	pop	{r4, pc}

001071a4 <__gnat_Unwind_RaiseException>:
  1071a4:	ea00287b 	b	111398 <___Unwind_RaiseException_from_arm>

001071a8 <__gnat_Unwind_ForcedUnwind>:
  1071a8:	ea002878 	b	111390 <___Unwind_ForcedUnwind_from_arm>

001071ac <system__bb__board_support__multiprocessors__poke_handler>:
  1071ac:	ea000448 	b	1082d4 <system__bb__cpu_primitives__multiprocessors__poke_handler>

001071b0 <system__bb__board_support__time__set_alarm>:
  1071b0:	e3e03000 	mvn	r3, #0
  1071b4:	e3e02000 	mvn	r2, #0
  1071b8:	e1510003 	cmp	r1, r3
  1071bc:	e3a03000 	mov	r3, #0
  1071c0:	01500002 	cmpeq	r0, r2
  1071c4:	0a000008 	beq	1071ec <system__bb__board_support__time__set_alarm+0x3c>
  1071c8:	e34f38f0 	movt	r3, #63728	; 0xf8f0
  1071cc:	e3a0c007 	mov	ip, #7
  1071d0:	e5932208 	ldr	r2, [r3, #520]	; 0x208
  1071d4:	e3c22002 	bic	r2, r2, #2
  1071d8:	e5832208 	str	r2, [r3, #520]	; 0x208
  1071dc:	e5830210 	str	r0, [r3, #528]	; 0x210
  1071e0:	e5831214 	str	r1, [r3, #532]	; 0x214
  1071e4:	e583c208 	str	ip, [r3, #520]	; 0x208
  1071e8:	e12fff1e 	bx	lr
  1071ec:	e3a02001 	mov	r2, #1
  1071f0:	e34f38f0 	movt	r3, #63728	; 0xf8f0
  1071f4:	e5832208 	str	r2, [r3, #520]	; 0x208
  1071f8:	e583220c 	str	r2, [r3, #524]	; 0x20c
  1071fc:	e12fff1e 	bx	lr

00107200 <system__bb__board_support__time__read_clock>:
  107200:	e3a02000 	mov	r2, #0
  107204:	e92d0030 	push	{r4, r5}
  107208:	e34f28f0 	movt	r2, #63728	; 0xf8f0
  10720c:	e5921204 	ldr	r1, [r2, #516]	; 0x204
  107210:	ea000000 	b	107218 <system__bb__board_support__time__read_clock+0x18>
  107214:	e1a01003 	mov	r1, r3
  107218:	e5920200 	ldr	r0, [r2, #512]	; 0x200
  10721c:	e5923204 	ldr	r3, [r2, #516]	; 0x204
  107220:	e1510003 	cmp	r1, r3
  107224:	1afffffa 	bne	107214 <system__bb__board_support__time__read_clock+0x14>
  107228:	e3a02000 	mov	r2, #0
  10722c:	e0924000 	adds	r4, r2, r0
  107230:	e2a15000 	adc	r5, r1, #0
  107234:	e1a00004 	mov	r0, r4
  107238:	e1a01005 	mov	r1, r5
  10723c:	e8bd0030 	pop	{r4, r5}
  107240:	e12fff1e 	bx	lr

00107244 <system__bb__board_support__time__install_alarm_handler>:
  107244:	e3a03b05 	mov	r3, #5120	; 0x1400
  107248:	e34f38f0 	movt	r3, #63728	; 0xf8f0
  10724c:	e5d3301b 	ldrb	r3, [r3, #27]
  107250:	e21330ff 	ands	r3, r3, #255	; 0xff
  107254:	11a03223 	lsrne	r3, r3, #4
  107258:	126330ff 	rsbne	r3, r3, #255	; 0xff
  10725c:	03a030ff 	moveq	r3, #255	; 0xff
  107260:	e3012664 	movw	r2, #5732	; 0x1664
  107264:	e3402012 	movt	r2, #18
  107268:	e592106c 	ldr	r1, [r2, #108]	; 0x6c
  10726c:	e3510000 	cmp	r1, #0
  107270:	0a000004 	beq	107288 <system__bb__board_support__time__install_alarm_handler+0x44>
  107274:	e3010720 	movw	r0, #5920	; 0x1720
  107278:	e92d4010 	push	{r4, lr}
  10727c:	e3a01081 	mov	r1, #129	; 0x81
  107280:	e3400011 	movt	r0, #17
  107284:	eb0014fa 	bl	10c674 <__gnat_rcheck_PE_Explicit_Raise>
  107288:	e1e03003 	mvn	r3, r3
  10728c:	e3a0cb05 	mov	ip, #5120	; 0x1400
  107290:	e1a03203 	lsl	r3, r3, #4
  107294:	e3a01c11 	mov	r1, #4352	; 0x1100
  107298:	e582006c 	str	r0, [r2, #108]	; 0x6c
  10729c:	e34fc8f0 	movt	ip, #63728	; 0xf8f0
  1072a0:	e6ef3073 	uxtb	r3, r3
  1072a4:	e34f18f0 	movt	r1, #63728	; 0xf8f0
  1072a8:	e3a02302 	mov	r2, #134217728	; 0x8000000
  1072ac:	e5cc301b 	strb	r3, [ip, #27]
  1072b0:	e5812000 	str	r2, [r1]
  1072b4:	e12fff1e 	bx	lr

001072b8 <system__bb__board_support__time__clear_alarm_interrupt>:
  1072b8:	e3a03000 	mov	r3, #0
  1072bc:	e3a02001 	mov	r2, #1
  1072c0:	e34f38f0 	movt	r3, #63728	; 0xf8f0
  1072c4:	e5832208 	str	r2, [r3, #520]	; 0x208
  1072c8:	e583220c 	str	r2, [r3, #524]	; 0x20c
  1072cc:	e12fff1e 	bx	lr

001072d0 <system__bb__board_support__interrupts__install_interrupt_handler>:
  1072d0:	e24130f0 	sub	r3, r1, #240	; 0xf0
  1072d4:	e3a0cb05 	mov	ip, #5120	; 0x1400
  1072d8:	e353000f 	cmp	r3, #15
  1072dc:	e200301f 	and	r3, r0, #31
  1072e0:	91e01001 	mvnls	r1, r1
  1072e4:	83a010ff 	movhi	r1, #255	; 0xff
  1072e8:	91a01201 	lslls	r1, r1, #4
  1072ec:	e34fc8f0 	movt	ip, #63728	; 0xf8f0
  1072f0:	96ef1071 	uxtbls	r1, r1
  1072f4:	e2702000 	rsbs	r2, r0, #0
  1072f8:	e202201f 	and	r2, r2, #31
  1072fc:	52623000 	rsbpl	r3, r2, #0
  107300:	e7cc1000 	strb	r1, [ip, r0]
  107304:	e353001f 	cmp	r3, #31
  107308:	e280101f 	add	r1, r0, #31
  10730c:	93a02001 	movls	r2, #1
  107310:	83a03000 	movhi	r3, #0
  107314:	91a03312 	lslls	r3, r2, r3
  107318:	e3500000 	cmp	r0, #0
  10731c:	b1a00001 	movlt	r0, r1
  107320:	e3a02c11 	mov	r2, #4352	; 0x1100
  107324:	e1a002c0 	asr	r0, r0, #5
  107328:	e34f28f0 	movt	r2, #63728	; 0xf8f0
  10732c:	e7823100 	str	r3, [r2, r0, lsl #2]
  107330:	e12fff1e 	bx	lr

00107334 <system__bb__board_support__interrupts__priority_of_interrupt>:
  107334:	e3a03b05 	mov	r3, #5120	; 0x1400
  107338:	e34f38f0 	movt	r3, #63728	; 0xf8f0
  10733c:	e7d30000 	ldrb	r0, [r3, r0]
  107340:	e21000ff 	ands	r0, r0, #255	; 0xff
  107344:	11a00220 	lsrne	r0, r0, #4
  107348:	126000ff 	rsbne	r0, r0, #255	; 0xff
  10734c:	03a000ff 	moveq	r0, #255	; 0xff
  107350:	e12fff1e 	bx	lr

00107354 <system__bb__board_support__interrupts__set_current_priority>:
  107354:	e24030f0 	sub	r3, r0, #240	; 0xf0
  107358:	e353000f 	cmp	r3, #15
  10735c:	e3a03000 	mov	r3, #0
  107360:	91e00000 	mvnls	r0, r0
  107364:	83a000ff 	movhi	r0, #255	; 0xff
  107368:	91a00200 	lslls	r0, r0, #4
  10736c:	e34f38f0 	movt	r3, #63728	; 0xf8f0
  107370:	96ef0070 	uxtbls	r0, r0
  107374:	e5830104 	str	r0, [r3, #260]	; 0x104
  107378:	e12fff1e 	bx	lr

0010737c <system__bb__board_support__interrupts__power_down>:
  10737c:	e320f003 	wfi
  107380:	e12fff1e 	bx	lr

00107384 <system__bb__board_support__multiprocessors__number_of_cpus>:
  107384:	e3a03000 	mov	r3, #0
  107388:	e34f38f0 	movt	r3, #63728	; 0xf8f0
  10738c:	e5930004 	ldr	r0, [r3, #4]
  107390:	e2000003 	and	r0, r0, #3
  107394:	e2800001 	add	r0, r0, #1
  107398:	e12fff1e 	bx	lr

0010739c <system__bb__board_support__multiprocessors__mpidr>:
  10739c:	ee100fb0 	mrc	15, 0, r0, cr0, cr0, {5}
  1073a0:	e12fff1e 	bx	lr

001073a4 <system__bb__board_support__multiprocessors__current_cpu>:
  1073a4:	ee100fb0 	mrc	15, 0, r0, cr0, cr0, {5}
  1073a8:	e2000003 	and	r0, r0, #3
  1073ac:	e2800001 	add	r0, r0, #1
  1073b0:	e12fff1e 	bx	lr

001073b4 <system__bb__board_support__multiprocessors__poke_cpu>:
  1073b4:	e280000f 	add	r0, r0, #15
  1073b8:	e350001f 	cmp	r0, #31
  1073bc:	93a03001 	movls	r3, #1
  1073c0:	83a00000 	movhi	r0, #0
  1073c4:	91a00013 	lslls	r0, r3, r0
  1073c8:	e3a03a01 	mov	r3, #4096	; 0x1000
  1073cc:	e34f38f0 	movt	r3, #63728	; 0xf8f0
  1073d0:	e5830f00 	str	r0, [r3, #3840]	; 0xf00
  1073d4:	e12fff1e 	bx	lr

001073d8 <system__bb__board_support__multiprocessors__start_all_cpus>:
  1073d8:	e3013664 	movw	r3, #5732	; 0x1664
  1073dc:	e92d4010 	push	{r4, lr}
  1073e0:	e3403012 	movt	r3, #18
  1073e4:	e5931000 	ldr	r1, [r3]
  1073e8:	e3510000 	cmp	r1, #0
  1073ec:	1a00000b 	bne	107420 <system__bb__board_support__multiprocessors__start_all_cpus+0x48>
  1073f0:	e30721ac 	movw	r2, #29100	; 0x71ac
  1073f4:	e3a0cb05 	mov	ip, #5120	; 0x1400
  1073f8:	e3a00c11 	mov	r0, #4352	; 0x1100
  1073fc:	e3a0e001 	mov	lr, #1
  107400:	e3402010 	movt	r2, #16
  107404:	e34fc8f0 	movt	ip, #63728	; 0xf8f0
  107408:	e34f08f0 	movt	r0, #63728	; 0xf8f0
  10740c:	e5832000 	str	r2, [r3]
  107410:	e5cc1000 	strb	r1, [ip]
  107414:	e580e000 	str	lr, [r0]
  107418:	e8bd4010 	pop	{r4, lr}
  10741c:	eafff37b 	b	104210 <__kick_cpu1>
  107420:	e3010720 	movw	r0, #5920	; 0x1720
  107424:	e3a01081 	mov	r1, #129	; 0x81
  107428:	e3400011 	movt	r0, #17
  10742c:	eb001490 	bl	10c674 <__gnat_rcheck_PE_Explicit_Raise>

00107430 <system__bb__board_support__to_pri>:
  107430:	e24030f0 	sub	r3, r0, #240	; 0xf0
  107434:	e353000f 	cmp	r3, #15
  107438:	91e00000 	mvnls	r0, r0
  10743c:	91a00200 	lslls	r0, r0, #4
  107440:	96ef0070 	uxtbls	r0, r0
  107444:	83a000ff 	movhi	r0, #255	; 0xff
  107448:	e12fff1e 	bx	lr

0010744c <system__bb__board_support__to_priority>:
  10744c:	e3500000 	cmp	r0, #0
  107450:	11a00220 	lsrne	r0, r0, #4
  107454:	126000ff 	rsbne	r0, r0, #255	; 0xff
  107458:	03a000ff 	moveq	r0, #255	; 0xff
  10745c:	e12fff1e 	bx	lr

00107460 <system__bb__board_support__TicdiserBIP>:
  107460:	e12fff1e 	bx	lr

00107464 <system__bb__board_support__TicdicerBIP>:
  107464:	e12fff1e 	bx	lr

00107468 <system__bb__board_support__TicdiprBIP>:
  107468:	e12fff1e 	bx	lr

0010746c <system__bb__board_support__TicdiptrBIP>:
  10746c:	e12fff1e 	bx	lr

00107470 <system__bb__board_support__TicdicfrBIP>:
  107470:	e12fff1e 	bx	lr

00107474 <__gnat_initialize_cpu_devices>:
  107474:	e3a01000 	mov	r1, #0
  107478:	e3a0c001 	mov	ip, #1
  10747c:	e34f18f0 	movt	r1, #63728	; 0xf8f0
  107480:	e3a02c11 	mov	r2, #4352	; 0x1100
  107484:	e3a00a01 	mov	r0, #4096	; 0x1000
  107488:	e3a03b05 	mov	r3, #5120	; 0x1400
  10748c:	e92d4010 	push	{r4, lr}
  107490:	e34f28f0 	movt	r2, #63728	; 0xf8f0
  107494:	e581c20c 	str	ip, [r1, #524]	; 0x20c
  107498:	e34f38f0 	movt	r3, #63728	; 0xf8f0
  10749c:	e34f08f0 	movt	r0, #63728	; 0xf8f0
  1074a0:	e3e04000 	mvn	r4, #0
  1074a4:	e581c208 	str	ip, [r1, #520]	; 0x208
  1074a8:	e3a0e003 	mov	lr, #3
  1074ac:	e3a01000 	mov	r1, #0
  1074b0:	e3a0c302 	mov	ip, #134217728	; 0x8000000
  1074b4:	e5824080 	str	r4, [r2, #128]	; 0x80
  1074b8:	e580e000 	str	lr, [r0]
  1074bc:	e582c000 	str	ip, [r2]
  1074c0:	e5c31000 	strb	r1, [r3]
  1074c4:	e5c3101b 	strb	r1, [r3, #27]
  1074c8:	e8bd8010 	pop	{r4, pc}

001074cc <system__bb__board_support__initialize_board>:
  1074cc:	e92d40f0 	push	{r4, r5, r6, r7, lr}
  1074d0:	e3a01000 	mov	r1, #0
  1074d4:	e3a0cc11 	mov	ip, #4352	; 0x1100
  1074d8:	e3a0eb07 	mov	lr, #7168	; 0x1c00
  1074dc:	e305345f 	movw	r3, #21599	; 0x545f
  1074e0:	e30d7555 	movw	r7, #54613	; 0xd555
  1074e4:	e3052555 	movw	r2, #21845	; 0x5555
  1074e8:	e34f18f0 	movt	r1, #63728	; 0xf8f0
  1074ec:	e3a00000 	mov	r0, #0
  1074f0:	e34fe8f0 	movt	lr, #63728	; 0xf8f0
  1074f4:	e34fc8f0 	movt	ip, #63728	; 0xf8f0
  1074f8:	e3e05000 	mvn	r5, #0
  1074fc:	e3a04003 	mov	r4, #3
  107500:	e345355d 	movt	r3, #21853	; 0x555d
  107504:	e3472555 	movt	r2, #30037	; 0x7555
  107508:	e3457555 	movt	r7, #21845	; 0x5555
  10750c:	e3056555 	movw	r6, #21845	; 0x5555
  107510:	e5810208 	str	r0, [r1, #520]	; 0x208
  107514:	e3406155 	movt	r6, #341	; 0x155
  107518:	e5810200 	str	r0, [r1, #512]	; 0x200
  10751c:	e5810204 	str	r0, [r1, #516]	; 0x204
  107520:	e58c5084 	str	r5, [ip, #132]	; 0x84
  107524:	e58c5088 	str	r5, [ip, #136]	; 0x88
  107528:	e5810104 	str	r0, [r1, #260]	; 0x104
  10752c:	e5814108 	str	r4, [r1, #264]	; 0x108
  107530:	e5814100 	str	r4, [r1, #256]	; 0x100
  107534:	e58e3008 	str	r3, [lr, #8]
  107538:	e3a03b06 	mov	r3, #6144	; 0x1800
  10753c:	e58e700c 	str	r7, [lr, #12]
  107540:	e34f38f0 	movt	r3, #63728	; 0xf8f0
  107544:	e58e2010 	str	r2, [lr, #16]
  107548:	e3002101 	movw	r2, #257	; 0x101
  10754c:	e58e6014 	str	r6, [lr, #20]
  107550:	e3402101 	movt	r2, #257	; 0x101
  107554:	e3a06a01 	mov	r6, #4096	; 0x1000
  107558:	e3a0eb05 	mov	lr, #5120	; 0x1400
  10755c:	e5832020 	str	r2, [r3, #32]
  107560:	e34fe8f0 	movt	lr, #63728	; 0xf8f0
  107564:	e5832024 	str	r2, [r3, #36]	; 0x24
  107568:	e34f68f0 	movt	r6, #63728	; 0xf8f0
  10756c:	e5832028 	str	r2, [r3, #40]	; 0x28
  107570:	e583202c 	str	r2, [r3, #44]	; 0x2c
  107574:	e5832030 	str	r2, [r3, #48]	; 0x30
  107578:	e5832034 	str	r2, [r3, #52]	; 0x34
  10757c:	e5832038 	str	r2, [r3, #56]	; 0x38
  107580:	e583203c 	str	r2, [r3, #60]	; 0x3c
  107584:	e5832040 	str	r2, [r3, #64]	; 0x40
  107588:	e5832044 	str	r2, [r3, #68]	; 0x44
  10758c:	e5832048 	str	r2, [r3, #72]	; 0x48
  107590:	e583204c 	str	r2, [r3, #76]	; 0x4c
  107594:	e5832050 	str	r2, [r3, #80]	; 0x50
  107598:	e5832054 	str	r2, [r3, #84]	; 0x54
  10759c:	e5832058 	str	r2, [r3, #88]	; 0x58
  1075a0:	e583205c 	str	r2, [r3, #92]	; 0x5c
  1075a4:	e3a03001 	mov	r3, #1
  1075a8:	e3a02302 	mov	r2, #134217728	; 0x8000000
  1075ac:	e581320c 	str	r3, [r1, #524]	; 0x20c
  1075b0:	e5813208 	str	r3, [r1, #520]	; 0x208
  1075b4:	e58c5080 	str	r5, [ip, #128]	; 0x80
  1075b8:	e5864000 	str	r4, [r6]
  1075bc:	e58c2000 	str	r2, [ip]
  1075c0:	e5ce0000 	strb	r0, [lr]
  1075c4:	e5ce001b 	strb	r0, [lr, #27]
  1075c8:	e8bd80f0 	pop	{r4, r5, r6, r7, pc}

001075cc <__gnat_irq_handler>:
  1075cc:	e92d4070 	push	{r4, r5, r6, lr}
  1075d0:	e3a04000 	mov	r4, #0
  1075d4:	e34f48f0 	movt	r4, #63728	; 0xf8f0
  1075d8:	e30033ff 	movw	r3, #1023	; 0x3ff
  1075dc:	e594510c 	ldr	r5, [r4, #268]	; 0x10c
  1075e0:	e7e90055 	ubfx	r0, r5, #0, #10
  1075e4:	e1500003 	cmp	r0, r3
  1075e8:	08bd8070 	popeq	{r4, r5, r6, pc}
  1075ec:	eb00002b 	bl	1076a0 <system__bb__interrupts__interrupt_wrapper>
  1075f0:	e5845110 	str	r5, [r4, #272]	; 0x110
  1075f4:	e8bd8070 	pop	{r4, r5, r6, pc}

001075f8 <__gnat_fiq_handler>:
  1075f8:	e92d4010 	push	{r4, lr}
  1075fc:	e300115b 	movw	r1, #347	; 0x15b
  107600:	e59f0000 	ldr	r0, [pc]	; 107608 <__gnat_fiq_handler+0x10>
  107604:	eb00141a 	bl	10c674 <__gnat_rcheck_PE_Explicit_Raise>
  107608:	00111730 	andseq	r1, r1, r0, lsr r7

0010760c <system__bb__interrupts__Tinterrupt_stacksBIP>:
  10760c:	e12fff1e 	bx	lr

00107610 <system__bb__interrupts__Tinterrupt_stack_tableBIP>:
  107610:	e12fff1e 	bx	lr

00107614 <system__bb__interrupts__attach_handler>:
  107614:	e3013664 	movw	r3, #5732	; 0x1664
  107618:	e92d4010 	push	{r4, lr}
  10761c:	e3403012 	movt	r3, #18
  107620:	e1a0e000 	mov	lr, r0
  107624:	e7930101 	ldr	r0, [r3, r1, lsl #2]
  107628:	e3500000 	cmp	r0, #0
  10762c:	1a000005 	bne	107648 <system__bb__interrupts__attach_handler+0x34>
  107630:	e1a0c001 	mov	ip, r1
  107634:	e1a01002 	mov	r1, r2
  107638:	e783e10c 	str	lr, [r3, ip, lsl #2]
  10763c:	e1a0000c 	mov	r0, ip
  107640:	e8bd4010 	pop	{r4, lr}
  107644:	eaffff21 	b	1072d0 <system__bb__board_support__interrupts__install_interrupt_handler>
  107648:	e3010748 	movw	r0, #5960	; 0x1748
  10764c:	e3a01081 	mov	r1, #129	; 0x81
  107650:	e3400011 	movt	r0, #17
  107654:	eb001406 	bl	10c674 <__gnat_rcheck_PE_Explicit_Raise>

00107658 <system__bb__interrupts__current_interrupt>:
  107658:	e92d4010 	push	{r4, lr}
  10765c:	ebffff4e 	bl	10739c <system__bb__board_support__multiprocessors__mpidr>
  107660:	e303351c 	movw	r3, #13596	; 0x351c
  107664:	e2000003 	and	r0, r0, #3
  107668:	e3403011 	movt	r3, #17
  10766c:	e2800101 	add	r0, r0, #1073741824	; 0x40000000
  107670:	e7934100 	ldr	r4, [r3, r0, lsl #2]
  107674:	ebffff48 	bl	10739c <system__bb__board_support__multiprocessors__mpidr>
  107678:	e3033524 	movw	r3, #13604	; 0x3524
  10767c:	e2000003 	and	r0, r0, #3
  107680:	e2800101 	add	r0, r0, #1073741824	; 0x40000000
  107684:	e3403011 	movt	r3, #17
  107688:	e7933100 	ldr	r3, [r3, r0, lsl #2]
  10768c:	e5d330d5 	ldrb	r3, [r3, #213]	; 0xd5
  107690:	e3530000 	cmp	r3, #0
  107694:	11a00004 	movne	r0, r4
  107698:	03a00060 	moveq	r0, #96	; 0x60
  10769c:	e8bd8010 	pop	{r4, pc}

001076a0 <system__bb__interrupts__interrupt_wrapper>:
  1076a0:	e92d4ff0 	push	{r4, r5, r6, r7, r8, r9, sl, fp, lr}
  1076a4:	e24dd00c 	sub	sp, sp, #12
  1076a8:	e1a0a000 	mov	sl, r0
  1076ac:	e303751c 	movw	r7, #13596	; 0x351c
  1076b0:	e3407011 	movt	r7, #17
  1076b4:	e3039550 	movw	r9, #13648	; 0x3550
  1076b8:	ebffff37 	bl	10739c <system__bb__board_support__multiprocessors__mpidr>
  1076bc:	e3033524 	movw	r3, #13604	; 0x3524
  1076c0:	e2000003 	and	r0, r0, #3
  1076c4:	e2800101 	add	r0, r0, #1073741824	; 0x40000000
  1076c8:	e3403011 	movt	r3, #17
  1076cc:	e7936100 	ldr	r6, [r3, r0, lsl #2]
  1076d0:	e3a03b05 	mov	r3, #5120	; 0x1400
  1076d4:	e34f38f0 	movt	r3, #63728	; 0xf8f0
  1076d8:	e3409011 	movt	r9, #17
  1076dc:	e59650b4 	ldr	r5, [r6, #180]	; 0xb4
  1076e0:	e7d3400a 	ldrb	r4, [r3, sl]
  1076e4:	e21440ff 	ands	r4, r4, #255	; 0xff
  1076e8:	11a04224 	lsrne	r4, r4, #4
  1076ec:	03a0b0ff 	moveq	fp, #255	; 0xff
  1076f0:	1264b0ff 	rsbne	fp, r4, #255	; 0xff
  1076f4:	11e0400b 	mvnne	r4, fp
  1076f8:	11a04204 	lslne	r4, r4, #4
  1076fc:	16ef4074 	uxtbne	r4, r4
  107700:	ebffff25 	bl	10739c <system__bb__board_support__multiprocessors__mpidr>
  107704:	e2000003 	and	r0, r0, #3
  107708:	e5993000 	ldr	r3, [r9]
  10770c:	e2808101 	add	r8, r0, #1073741824	; 0x40000000
  107710:	e7972108 	ldr	r2, [r7, r8, lsl #2]
  107714:	e3530000 	cmp	r3, #0
  107718:	e58d2000 	str	r2, [sp]
  10771c:	e5d620d5 	ldrb	r2, [r6, #213]	; 0xd5
  107720:	e6ef2072 	uxtb	r2, r2
  107724:	e58d2004 	str	r2, [sp, #4]
  107728:	0a000000 	beq	107730 <system__bb__interrupts__interrupt_wrapper+0x90>
  10772c:	e12fff33 	blx	r3
  107730:	e3a03001 	mov	r3, #1
  107734:	e787a108 	str	sl, [r7, r8, lsl #2]
  107738:	e1a0100b 	mov	r1, fp
  10773c:	e5c630d5 	strb	r3, [r6, #213]	; 0xd5
  107740:	e1a00006 	mov	r0, r6
  107744:	eb00003a 	bl	107834 <system__bb__threads__queues__change_priority>
  107748:	e3a03000 	mov	r3, #0
  10774c:	e35b00ff 	cmp	fp, #255	; 0xff
  107750:	e34f38f0 	movt	r3, #63728	; 0xf8f0
  107754:	e5834104 	str	r4, [r3, #260]	; 0x104
  107758:	0a000000 	beq	107760 <system__bb__interrupts__interrupt_wrapper+0xc0>
  10775c:	f1080080 	cpsie	i
  107760:	e3013664 	movw	r3, #5732	; 0x1664
  107764:	e1a0000a 	mov	r0, sl
  107768:	e3403012 	movt	r3, #18
  10776c:	e793310a 	ldr	r3, [r3, sl, lsl #2]
  107770:	e12fff33 	blx	r3
  107774:	f10c0080 	cpsid	i
  107778:	e5993000 	ldr	r3, [r9]
  10777c:	e3530000 	cmp	r3, #0
  107780:	0a000000 	beq	107788 <system__bb__interrupts__interrupt_wrapper+0xe8>
  107784:	e12fff33 	blx	r3
  107788:	e1a01005 	mov	r1, r5
  10778c:	e1a00006 	mov	r0, r6
  107790:	eb000027 	bl	107834 <system__bb__threads__queues__change_priority>
  107794:	e24530f0 	sub	r3, r5, #240	; 0xf0
  107798:	e59d2000 	ldr	r2, [sp]
  10779c:	e353000f 	cmp	r3, #15
  1077a0:	e59d3004 	ldr	r3, [sp, #4]
  1077a4:	91e05005 	mvnls	r5, r5
  1077a8:	83a050ff 	movhi	r5, #255	; 0xff
  1077ac:	91a05205 	lslls	r5, r5, #4
  1077b0:	e7872108 	str	r2, [r7, r8, lsl #2]
  1077b4:	e5c630d5 	strb	r3, [r6, #213]	; 0xd5
  1077b8:	e3a03000 	mov	r3, #0
  1077bc:	96ef5075 	uxtbls	r5, r5
  1077c0:	e34f38f0 	movt	r3, #63728	; 0xf8f0
  1077c4:	e5835104 	str	r5, [r3, #260]	; 0x104
  1077c8:	e28dd00c 	add	sp, sp, #12
  1077cc:	e8bd8ff0 	pop	{r4, r5, r6, r7, r8, r9, sl, fp, pc}

001077d0 <system__bb__interrupts__within_interrupt_stack>:
  1077d0:	e92d4010 	push	{r4, lr}
  1077d4:	e1a04000 	mov	r4, r0
  1077d8:	ebffff9e 	bl	107658 <system__bb__interrupts__current_interrupt>
  1077dc:	e3500060 	cmp	r0, #96	; 0x60
  1077e0:	0a000008 	beq	107808 <system__bb__interrupts__within_interrupt_stack+0x38>
  1077e4:	e3033730 	movw	r3, #14128	; 0x3730
  1077e8:	e3403012 	movt	r3, #18
  1077ec:	e1540003 	cmp	r4, r3
  1077f0:	3a000004 	bcc	107808 <system__bb__interrupts__within_interrupt_stack+0x38>
  1077f4:	e59f0014 	ldr	r0, [pc, #20]	; 107810 <system__bb__interrupts__within_interrupt_stack+0x40>
  1077f8:	e1500004 	cmp	r0, r4
  1077fc:	33a00000 	movcc	r0, #0
  107800:	23a00001 	movcs	r0, #1
  107804:	e8bd8010 	pop	{r4, pc}
  107808:	e3a00000 	mov	r0, #0
  10780c:	e8bd8010 	pop	{r4, pc}
  107810:	0012572f 	andseq	r5, r2, pc, lsr #14

00107814 <system__bb__interrupts__initialize_interrupts>:
  107814:	e59f2014 	ldr	r2, [pc, #20]	; 107830 <system__bb__interrupts__initialize_interrupts+0x1c>
  107818:	e301365c 	movw	r3, #5724	; 0x165c
  10781c:	e3403012 	movt	r3, #18
  107820:	e2821a01 	add	r1, r2, #4096	; 0x1000
  107824:	e5832000 	str	r2, [r3]
  107828:	e5831004 	str	r1, [r3, #4]
  10782c:	e12fff1e 	bx	lr
  107830:	00124728 	andseq	r4, r2, r8, lsr #14

00107834 <system__bb__threads__queues__change_priority>:
  107834:	e92d4070 	push	{r4, r5, r6, lr}
  107838:	e1a04000 	mov	r4, r0
  10783c:	e1a05001 	mov	r5, r1
  107840:	ebfffed5 	bl	10739c <system__bb__board_support__multiprocessors__mpidr>
  107844:	e59430b4 	ldr	r3, [r4, #180]	; 0xb4
  107848:	e1530005 	cmp	r3, r5
  10784c:	08bd8070 	popeq	{r4, r5, r6, pc}
  107850:	e2000003 	and	r0, r0, #3
  107854:	e303c52c 	movw	ip, #13612	; 0x352c
  107858:	e2800101 	add	r0, r0, #1073741824	; 0x40000000
  10785c:	e340c011 	movt	ip, #17
  107860:	e58450b4 	str	r5, [r4, #180]	; 0xb4
  107864:	e79c1100 	ldr	r1, [ip, r0, lsl #2]
  107868:	e1540001 	cmp	r4, r1
  10786c:	0a000015 	beq	1078c8 <system__bb__threads__queues__change_priority+0x94>
  107870:	e3510000 	cmp	r1, #0
  107874:	08bd8070 	popeq	{r4, r5, r6, pc}
  107878:	e59130c0 	ldr	r3, [r1, #192]	; 0xc0
  10787c:	e1540003 	cmp	r4, r3
  107880:	1a000001 	bne	10788c <system__bb__threads__queues__change_priority+0x58>
  107884:	ea000021 	b	107910 <system__bb__threads__queues__change_priority+0xdc>
  107888:	e1a03002 	mov	r3, r2
  10788c:	e3530000 	cmp	r3, #0
  107890:	08bd8070 	popeq	{r4, r5, r6, pc}
  107894:	e59320c0 	ldr	r2, [r3, #192]	; 0xc0
  107898:	e1520004 	cmp	r2, r4
  10789c:	1afffff9 	bne	107888 <system__bb__threads__queues__change_priority+0x54>
  1078a0:	e59420c0 	ldr	r2, [r4, #192]	; 0xc0
  1078a4:	e58320c0 	str	r2, [r3, #192]	; 0xc0
  1078a8:	e59130b4 	ldr	r3, [r1, #180]	; 0xb4
  1078ac:	e1530005 	cmp	r3, r5
  1078b0:	d58410c0 	strle	r1, [r4, #192]	; 0xc0
  1078b4:	c1a02001 	movgt	r2, r1
  1078b8:	d1a01004 	movle	r1, r4
  1078bc:	ca00000c 	bgt	1078f4 <system__bb__threads__queues__change_priority+0xc0>
  1078c0:	e78c1100 	str	r1, [ip, r0, lsl #2]
  1078c4:	e8bd8070 	pop	{r4, r5, r6, pc}
  1078c8:	e59410c0 	ldr	r1, [r4, #192]	; 0xc0
  1078cc:	e3510000 	cmp	r1, #0
  1078d0:	08bd8070 	popeq	{r4, r5, r6, pc}
  1078d4:	e59130b4 	ldr	r3, [r1, #180]	; 0xb4
  1078d8:	e1530005 	cmp	r3, r5
  1078dc:	cafffff1 	bgt	1078a8 <system__bb__threads__queues__change_priority+0x74>
  1078e0:	e8bd8070 	pop	{r4, r5, r6, pc}
  1078e4:	e593e0b4 	ldr	lr, [r3, #180]	; 0xb4
  1078e8:	e15e0005 	cmp	lr, r5
  1078ec:	da000003 	ble	107900 <system__bb__threads__queues__change_priority+0xcc>
  1078f0:	e1a02003 	mov	r2, r3
  1078f4:	e59230c0 	ldr	r3, [r2, #192]	; 0xc0
  1078f8:	e3530000 	cmp	r3, #0
  1078fc:	1afffff8 	bne	1078e4 <system__bb__threads__queues__change_priority+0xb0>
  107900:	e58430c0 	str	r3, [r4, #192]	; 0xc0
  107904:	e78c1100 	str	r1, [ip, r0, lsl #2]
  107908:	e58240c0 	str	r4, [r2, #192]	; 0xc0
  10790c:	e8bd8070 	pop	{r4, r5, r6, pc}
  107910:	e1a03001 	mov	r3, r1
  107914:	eaffffe1 	b	1078a0 <system__bb__threads__queues__change_priority+0x6c>

00107918 <__gnat_context_switch_needed>:
  107918:	e92d4010 	push	{r4, lr}
  10791c:	ebfffe9e 	bl	10739c <system__bb__board_support__multiprocessors__mpidr>
  107920:	e303352c 	movw	r3, #13612	; 0x352c
  107924:	e2000003 	and	r0, r0, #3
  107928:	e3403011 	movt	r3, #17
  10792c:	e2800101 	add	r0, r0, #1073741824	; 0x40000000
  107930:	e7934100 	ldr	r4, [r3, r0, lsl #2]
  107934:	ebfffe98 	bl	10739c <system__bb__board_support__multiprocessors__mpidr>
  107938:	e3033524 	movw	r3, #13604	; 0x3524
  10793c:	e2000003 	and	r0, r0, #3
  107940:	e3403011 	movt	r3, #17
  107944:	e2800101 	add	r0, r0, #1073741824	; 0x40000000
  107948:	e7930100 	ldr	r0, [r3, r0, lsl #2]
  10794c:	e0500004 	subs	r0, r0, r4
  107950:	13a00001 	movne	r0, #1
  107954:	e8bd8010 	pop	{r4, pc}

00107958 <system__bb__threads__queues__current_priority>:
  107958:	e3033524 	movw	r3, #13604	; 0x3524
  10795c:	e2400107 	sub	r0, r0, #-1073741823	; 0xc0000001
  107960:	e3403011 	movt	r3, #17
  107964:	e7933100 	ldr	r3, [r3, r0, lsl #2]
  107968:	e3530000 	cmp	r3, #0
  10796c:	0a000004 	beq	107984 <system__bb__threads__queues__current_priority+0x2c>
  107970:	e5d320d4 	ldrb	r2, [r3, #212]	; 0xd4
  107974:	e3520000 	cmp	r2, #0
  107978:	1a000001 	bne	107984 <system__bb__threads__queues__current_priority+0x2c>
  10797c:	e59300b4 	ldr	r0, [r3, #180]	; 0xb4
  107980:	e12fff1e 	bx	lr
  107984:	e3a00000 	mov	r0, #0
  107988:	e12fff1e 	bx	lr

0010798c <system__bb__threads__queues__extract>:
  10798c:	e1d03adc 	ldrsb	r3, [r0, #172]	; 0xac
  107990:	e3a0c000 	mov	ip, #0
  107994:	e59010c0 	ldr	r1, [r0, #192]	; 0xc0
  107998:	e303252c 	movw	r2, #13612	; 0x352c
  10799c:	e3402011 	movt	r2, #17
  1079a0:	e580c0c0 	str	ip, [r0, #192]	; 0xc0
  1079a4:	e153000c 	cmp	r3, ip
  1079a8:	03a03001 	moveq	r3, #1
  1079ac:	e2433107 	sub	r3, r3, #-1073741823	; 0xc0000001
  1079b0:	e7821103 	str	r1, [r2, r3, lsl #2]
  1079b4:	e12fff1e 	bx	lr

001079b8 <system__bb__threads__queues__extract_first_alarm>:
  1079b8:	e92d4070 	push	{r4, r5, r6, lr}
  1079bc:	e3e04000 	mvn	r4, #0
  1079c0:	ebfffe75 	bl	10739c <system__bb__board_support__multiprocessors__mpidr>
  1079c4:	e3033534 	movw	r3, #13620	; 0x3534
  1079c8:	e2000003 	and	r0, r0, #3
  1079cc:	e2802101 	add	r2, r0, #1073741824	; 0x40000000
  1079d0:	e3403011 	movt	r3, #17
  1079d4:	e7931102 	ldr	r1, [r3, r2, lsl #2]
  1079d8:	e3a0e000 	mov	lr, #0
  1079dc:	e3e05000 	mvn	r5, #0
  1079e0:	e591c0d0 	ldr	ip, [r1, #208]	; 0xd0
  1079e4:	e1a00001 	mov	r0, r1
  1079e8:	e1c14cf8 	strd	r4, [r1, #200]	; 0xc8
  1079ec:	e581e0d0 	str	lr, [r1, #208]	; 0xd0
  1079f0:	e783c102 	str	ip, [r3, r2, lsl #2]
  1079f4:	e8bd8070 	pop	{r4, r5, r6, pc}

001079f8 <system__bb__threads__queues__first_thread>:
  1079f8:	e92d4010 	push	{r4, lr}
  1079fc:	ebfffe66 	bl	10739c <system__bb__board_support__multiprocessors__mpidr>
  107a00:	e303352c 	movw	r3, #13612	; 0x352c
  107a04:	e2000003 	and	r0, r0, #3
  107a08:	e3403011 	movt	r3, #17
  107a0c:	e2800101 	add	r0, r0, #1073741824	; 0x40000000
  107a10:	e7930100 	ldr	r0, [r3, r0, lsl #2]
  107a14:	e8bd8010 	pop	{r4, pc}

00107a18 <system__bb__threads__queues__get_next_alarm_time>:
  107a18:	e3033534 	movw	r3, #13620	; 0x3534
  107a1c:	e2400107 	sub	r0, r0, #-1073741823	; 0xc0000001
  107a20:	e3403011 	movt	r3, #17
  107a24:	e7933100 	ldr	r3, [r3, r0, lsl #2]
  107a28:	e3530000 	cmp	r3, #0
  107a2c:	0a000001 	beq	107a38 <system__bb__threads__queues__get_next_alarm_time+0x20>
  107a30:	e1c30cd8 	ldrd	r0, [r3, #200]	; 0xc8
  107a34:	e12fff1e 	bx	lr
  107a38:	e3e00000 	mvn	r0, #0
  107a3c:	e3e01000 	mvn	r1, #0
  107a40:	e12fff1e 	bx	lr

00107a44 <system__bb__threads__queues__insert>:
  107a44:	e1d03adc 	ldrsb	r3, [r0, #172]	; 0xac
  107a48:	e303252c 	movw	r2, #13612	; 0x352c
  107a4c:	e3402011 	movt	r2, #17
  107a50:	e3530000 	cmp	r3, #0
  107a54:	03a03001 	moveq	r3, #1
  107a58:	e2433107 	sub	r3, r3, #-1073741823	; 0xc0000001
  107a5c:	e7921103 	ldr	r1, [r2, r3, lsl #2]
  107a60:	e1510000 	cmp	r1, r0
  107a64:	012fff1e 	bxeq	lr
  107a68:	e7921103 	ldr	r1, [r2, r3, lsl #2]
  107a6c:	e3510000 	cmp	r1, #0
  107a70:	0a000015 	beq	107acc <system__bb__threads__queues__insert+0x88>
  107a74:	e590c0b4 	ldr	ip, [r0, #180]	; 0xb4
  107a78:	e7921103 	ldr	r1, [r2, r3, lsl #2]
  107a7c:	e59110b4 	ldr	r1, [r1, #180]	; 0xb4
  107a80:	e15c0001 	cmp	ip, r1
  107a84:	ca000010 	bgt	107acc <system__bb__threads__queues__insert+0x88>
  107a88:	e7922103 	ldr	r2, [r2, r3, lsl #2]
  107a8c:	ea000006 	b	107aac <system__bb__threads__queues__insert+0x68>
  107a90:	e1530000 	cmp	r3, r0
  107a94:	0a000010 	beq	107adc <system__bb__threads__queues__insert+0x98>
  107a98:	e593c0b4 	ldr	ip, [r3, #180]	; 0xb4
  107a9c:	e59010b4 	ldr	r1, [r0, #180]	; 0xb4
  107aa0:	e15c0001 	cmp	ip, r1
  107aa4:	ba000005 	blt	107ac0 <system__bb__threads__queues__insert+0x7c>
  107aa8:	e1a02003 	mov	r2, r3
  107aac:	e59230c0 	ldr	r3, [r2, #192]	; 0xc0
  107ab0:	e3530000 	cmp	r3, #0
  107ab4:	1afffff5 	bne	107a90 <system__bb__threads__queues__insert+0x4c>
  107ab8:	e3500000 	cmp	r0, #0
  107abc:	0a000006 	beq	107adc <system__bb__threads__queues__insert+0x98>
  107ac0:	e58030c0 	str	r3, [r0, #192]	; 0xc0
  107ac4:	e58200c0 	str	r0, [r2, #192]	; 0xc0
  107ac8:	e12fff1e 	bx	lr
  107acc:	e7921103 	ldr	r1, [r2, r3, lsl #2]
  107ad0:	e7820103 	str	r0, [r2, r3, lsl #2]
  107ad4:	e58010c0 	str	r1, [r0, #192]	; 0xc0
  107ad8:	e12fff1e 	bx	lr
  107adc:	e59030c0 	ldr	r3, [r0, #192]	; 0xc0
  107ae0:	e58230c0 	str	r3, [r2, #192]	; 0xc0
  107ae4:	ea000005 	b	107b00 <system__bb__threads__queues__insert+0xbc>
  107ae8:	e593c0b4 	ldr	ip, [r3, #180]	; 0xb4
  107aec:	e59010b4 	ldr	r1, [r0, #180]	; 0xb4
  107af0:	e15c0001 	cmp	ip, r1
  107af4:	bafffff1 	blt	107ac0 <system__bb__threads__queues__insert+0x7c>
  107af8:	e1a02003 	mov	r2, r3
  107afc:	e59330c0 	ldr	r3, [r3, #192]	; 0xc0
  107b00:	e3530000 	cmp	r3, #0
  107b04:	1afffff7 	bne	107ae8 <system__bb__threads__queues__insert+0xa4>
  107b08:	eaffffec 	b	107ac0 <system__bb__threads__queues__insert+0x7c>

00107b0c <system__bb__threads__queues__insert_alarm>:
  107b0c:	e1d23adc 	ldrsb	r3, [r2, #172]	; 0xac
  107b10:	e303c534 	movw	ip, #13620	; 0x3534
  107b14:	e340c011 	movt	ip, #17
  107b18:	e92d00f0 	push	{r4, r5, r6, r7}
  107b1c:	e1a07001 	mov	r7, r1
  107b20:	e1a06000 	mov	r6, r0
  107b24:	e3530000 	cmp	r3, #0
  107b28:	03a03001 	moveq	r3, #1
  107b2c:	e1c26cf8 	strd	r6, [r2, #200]	; 0xc8
  107b30:	e2433107 	sub	r3, r3, #-1073741823	; 0xc0000001
  107b34:	e79c1103 	ldr	r1, [ip, r3, lsl #2]
  107b38:	e3510000 	cmp	r1, #0
  107b3c:	0a000003 	beq	107b50 <system__bb__threads__queues__insert_alarm+0x44>
  107b40:	e1c14cd8 	ldrd	r4, [r1, #200]	; 0xc8
  107b44:	e1550007 	cmp	r5, r7
  107b48:	01540000 	cmpeq	r4, r0
  107b4c:	9a000009 	bls	107b78 <system__bb__threads__queues__insert_alarm+0x6c>
  107b50:	e3a00001 	mov	r0, #1
  107b54:	e58210d0 	str	r1, [r2, #208]	; 0xd0
  107b58:	e78c2103 	str	r2, [ip, r3, lsl #2]
  107b5c:	e8bd00f0 	pop	{r4, r5, r6, r7}
  107b60:	e12fff1e 	bx	lr
  107b64:	e1c34cd8 	ldrd	r4, [r3, #200]	; 0xc8
  107b68:	e1550007 	cmp	r5, r7
  107b6c:	01540006 	cmpeq	r4, r6
  107b70:	2a000003 	bcs	107b84 <system__bb__threads__queues__insert_alarm+0x78>
  107b74:	e1a01003 	mov	r1, r3
  107b78:	e59130d0 	ldr	r3, [r1, #208]	; 0xd0
  107b7c:	e3530000 	cmp	r3, #0
  107b80:	1afffff7 	bne	107b64 <system__bb__threads__queues__insert_alarm+0x58>
  107b84:	e3a00000 	mov	r0, #0
  107b88:	e58230d0 	str	r3, [r2, #208]	; 0xd0
  107b8c:	e58120d0 	str	r2, [r1, #208]	; 0xd0
  107b90:	e8bd00f0 	pop	{r4, r5, r6, r7}
  107b94:	e12fff1e 	bx	lr

00107b98 <system__bb__threads__queues__running_thread>:
  107b98:	e92d4010 	push	{r4, lr}
  107b9c:	ebfffdfe 	bl	10739c <system__bb__board_support__multiprocessors__mpidr>
  107ba0:	e3033524 	movw	r3, #13604	; 0x3524
  107ba4:	e2000003 	and	r0, r0, #3
  107ba8:	e3403011 	movt	r3, #17
  107bac:	e2800101 	add	r0, r0, #1073741824	; 0x40000000
  107bb0:	e7930100 	ldr	r0, [r3, r0, lsl #2]
  107bb4:	e8bd8010 	pop	{r4, pc}

00107bb8 <system__bb__threads__queues__wakeup_expired_alarms>:
  107bb8:	e92d4ff8 	push	{r3, r4, r5, r6, r7, r8, r9, sl, fp, lr}
  107bbc:	e1a04000 	mov	r4, r0
  107bc0:	e1a05001 	mov	r5, r1
  107bc4:	e303a534 	movw	sl, #13620	; 0x3534
  107bc8:	e303952c 	movw	r9, #13612	; 0x352c
  107bcc:	e340a011 	movt	sl, #17
  107bd0:	ebfffdf1 	bl	10739c <system__bb__board_support__multiprocessors__mpidr>
  107bd4:	e2000003 	and	r0, r0, #3
  107bd8:	e3409011 	movt	r9, #17
  107bdc:	e2808101 	add	r8, r0, #1073741824	; 0x40000000
  107be0:	e3e06000 	mvn	r6, #0
  107be4:	e3e07000 	mvn	r7, #0
  107be8:	e3a0b000 	mov	fp, #0
  107bec:	e79a3108 	ldr	r3, [sl, r8, lsl #2]
  107bf0:	e3530000 	cmp	r3, #0
  107bf4:	0a000030 	beq	107cbc <system__bb__threads__queues__wakeup_expired_alarms+0x104>
  107bf8:	e1c32cd8 	ldrd	r2, [r3, #200]	; 0xc8
  107bfc:	e1550003 	cmp	r5, r3
  107c00:	01540002 	cmpeq	r4, r2
  107c04:	38bd8ff8 	popcc	{r3, r4, r5, r6, r7, r8, r9, sl, fp, pc}
  107c08:	ebfffde3 	bl	10739c <system__bb__board_support__multiprocessors__mpidr>
  107c0c:	e2000003 	and	r0, r0, #3
  107c10:	e2800101 	add	r0, r0, #1073741824	; 0x40000000
  107c14:	e79a3100 	ldr	r3, [sl, r0, lsl #2]
  107c18:	e1d32adc 	ldrsb	r2, [r3, #172]	; 0xac
  107c1c:	e59310d0 	ldr	r1, [r3, #208]	; 0xd0
  107c20:	e1c36cf8 	strd	r6, [r3, #200]	; 0xc8
  107c24:	e3520000 	cmp	r2, #0
  107c28:	e5c3b0d4 	strb	fp, [r3, #212]	; 0xd4
  107c2c:	03a02001 	moveq	r2, #1
  107c30:	e78a1100 	str	r1, [sl, r0, lsl #2]
  107c34:	e2422107 	sub	r2, r2, #-1073741823	; 0xc0000001
  107c38:	e583b0d0 	str	fp, [r3, #208]	; 0xd0
  107c3c:	e7991102 	ldr	r1, [r9, r2, lsl #2]
  107c40:	e1510003 	cmp	r1, r3
  107c44:	0affffe8 	beq	107bec <system__bb__threads__queues__wakeup_expired_alarms+0x34>
  107c48:	e7991102 	ldr	r1, [r9, r2, lsl #2]
  107c4c:	e3510000 	cmp	r1, #0
  107c50:	0a000015 	beq	107cac <system__bb__threads__queues__wakeup_expired_alarms+0xf4>
  107c54:	e59300b4 	ldr	r0, [r3, #180]	; 0xb4
  107c58:	e7991102 	ldr	r1, [r9, r2, lsl #2]
  107c5c:	e59110b4 	ldr	r1, [r1, #180]	; 0xb4
  107c60:	e1500001 	cmp	r0, r1
  107c64:	ca000010 	bgt	107cac <system__bb__threads__queues__wakeup_expired_alarms+0xf4>
  107c68:	e7991102 	ldr	r1, [r9, r2, lsl #2]
  107c6c:	ea000006 	b	107c8c <system__bb__threads__queues__wakeup_expired_alarms+0xd4>
  107c70:	e1520003 	cmp	r2, r3
  107c74:	0a000013 	beq	107cc8 <system__bb__threads__queues__wakeup_expired_alarms+0x110>
  107c78:	e592c0b4 	ldr	ip, [r2, #180]	; 0xb4
  107c7c:	e59300b4 	ldr	r0, [r3, #180]	; 0xb4
  107c80:	e15c0000 	cmp	ip, r0
  107c84:	ba000005 	blt	107ca0 <system__bb__threads__queues__wakeup_expired_alarms+0xe8>
  107c88:	e1a01002 	mov	r1, r2
  107c8c:	e59120c0 	ldr	r2, [r1, #192]	; 0xc0
  107c90:	e3520000 	cmp	r2, #0
  107c94:	1afffff5 	bne	107c70 <system__bb__threads__queues__wakeup_expired_alarms+0xb8>
  107c98:	e3530000 	cmp	r3, #0
  107c9c:	0a000009 	beq	107cc8 <system__bb__threads__queues__wakeup_expired_alarms+0x110>
  107ca0:	e58320c0 	str	r2, [r3, #192]	; 0xc0
  107ca4:	e58130c0 	str	r3, [r1, #192]	; 0xc0
  107ca8:	eaffffce 	b	107be8 <system__bb__threads__queues__wakeup_expired_alarms+0x30>
  107cac:	e7991102 	ldr	r1, [r9, r2, lsl #2]
  107cb0:	e7893102 	str	r3, [r9, r2, lsl #2]
  107cb4:	e58310c0 	str	r1, [r3, #192]	; 0xc0
  107cb8:	eaffffca 	b	107be8 <system__bb__threads__queues__wakeup_expired_alarms+0x30>
  107cbc:	e3e02000 	mvn	r2, #0
  107cc0:	e3e03000 	mvn	r3, #0
  107cc4:	eaffffcc 	b	107bfc <system__bb__threads__queues__wakeup_expired_alarms+0x44>
  107cc8:	e59320c0 	ldr	r2, [r3, #192]	; 0xc0
  107ccc:	e58120c0 	str	r2, [r1, #192]	; 0xc0
  107cd0:	ea000005 	b	107cec <system__bb__threads__queues__wakeup_expired_alarms+0x134>
  107cd4:	e592c0b4 	ldr	ip, [r2, #180]	; 0xb4
  107cd8:	e59300b4 	ldr	r0, [r3, #180]	; 0xb4
  107cdc:	e15c0000 	cmp	ip, r0
  107ce0:	baffffee 	blt	107ca0 <system__bb__threads__queues__wakeup_expired_alarms+0xe8>
  107ce4:	e1a01002 	mov	r1, r2
  107ce8:	e59220c0 	ldr	r2, [r2, #192]	; 0xc0
  107cec:	e3520000 	cmp	r2, #0
  107cf0:	1afffff7 	bne	107cd4 <system__bb__threads__queues__wakeup_expired_alarms+0x11c>
  107cf4:	eaffffe9 	b	107ca0 <system__bb__threads__queues__wakeup_expired_alarms+0xe8>

00107cf8 <system__bb__threads__queues__yield>:
  107cf8:	e1d03adc 	ldrsb	r3, [r0, #172]	; 0xac
  107cfc:	e59020c0 	ldr	r2, [r0, #192]	; 0xc0
  107d00:	e59010b4 	ldr	r1, [r0, #180]	; 0xb4
  107d04:	e3530000 	cmp	r3, #0
  107d08:	03a03001 	moveq	r3, #1
  107d0c:	e3520000 	cmp	r2, #0
  107d10:	012fff1e 	bxeq	lr
  107d14:	e592c0b4 	ldr	ip, [r2, #180]	; 0xb4
  107d18:	e15c0001 	cmp	ip, r1
  107d1c:	112fff1e 	bxne	lr
  107d20:	e303152c 	movw	r1, #13612	; 0x352c
  107d24:	e2433107 	sub	r3, r3, #-1073741823	; 0xc0000001
  107d28:	e3401011 	movt	r1, #17
  107d2c:	e7812103 	str	r2, [r1, r3, lsl #2]
  107d30:	e7912103 	ldr	r2, [r1, r3, lsl #2]
  107d34:	ea000003 	b	107d48 <system__bb__threads__queues__yield+0x50>
  107d38:	e59310b4 	ldr	r1, [r3, #180]	; 0xb4
  107d3c:	e15c0001 	cmp	ip, r1
  107d40:	1a000003 	bne	107d54 <system__bb__threads__queues__yield+0x5c>
  107d44:	e1a02003 	mov	r2, r3
  107d48:	e59230c0 	ldr	r3, [r2, #192]	; 0xc0
  107d4c:	e3530000 	cmp	r3, #0
  107d50:	1afffff8 	bne	107d38 <system__bb__threads__queues__yield+0x40>
  107d54:	e58030c0 	str	r3, [r0, #192]	; 0xc0
  107d58:	e58200c0 	str	r0, [r2, #192]	; 0xc0
  107d5c:	e12fff1e 	bx	lr

00107d60 <system__bb__timing_events___size>:
  107d60:	e3a00c01 	mov	r0, #256	; 0x100
  107d64:	e3a01000 	mov	r1, #0
  107d68:	e12fff1e 	bx	lr

00107d6c <system__bb__timing_events__timing_eventDF>:
  107d6c:	e12fff1e 	bx	lr

00107d70 <system__bb__timing_events__time_of_event>:
  107d70:	e5903010 	ldr	r3, [r0, #16]
  107d74:	e3530000 	cmp	r3, #0
  107d78:	0a000001 	beq	107d84 <system__bb__timing_events__time_of_event+0x14>
  107d7c:	e1c000d8 	ldrd	r0, [r0, #8]
  107d80:	e12fff1e 	bx	lr
  107d84:	e3a00000 	mov	r0, #0
  107d88:	e3a01000 	mov	r1, #0
  107d8c:	e12fff1e 	bx	lr

00107d90 <system__bb__timing_events__extract>:
  107d90:	e92d4010 	push	{r4, lr}
  107d94:	e1a04000 	mov	r4, r0
  107d98:	ebfffd7f 	bl	10739c <system__bb__board_support__multiprocessors__mpidr>
  107d9c:	e3033544 	movw	r3, #13636	; 0x3544
  107da0:	e2000003 	and	r0, r0, #3
  107da4:	e2802101 	add	r2, r0, #1073741824	; 0x40000000
  107da8:	e3403011 	movt	r3, #17
  107dac:	e7931102 	ldr	r1, [r3, r2, lsl #2]
  107db0:	e1510004 	cmp	r1, r4
  107db4:	15943018 	ldrne	r3, [r4, #24]
  107db8:	03a00001 	moveq	r0, #1
  107dbc:	15942014 	ldrne	r2, [r4, #20]
  107dc0:	13a00000 	movne	r0, #0
  107dc4:	05941014 	ldreq	r1, [r4, #20]
  107dc8:	15832014 	strne	r2, [r3, #20]
  107dcc:	15941014 	ldrne	r1, [r4, #20]
  107dd0:	07831102 	streq	r1, [r3, r2, lsl #2]
  107dd4:	e3510000 	cmp	r1, #0
  107dd8:	15943018 	ldrne	r3, [r4, #24]
  107ddc:	15813018 	strne	r3, [r1, #24]
  107de0:	e3a03000 	mov	r3, #0
  107de4:	e5843014 	str	r3, [r4, #20]
  107de8:	e5843018 	str	r3, [r4, #24]
  107dec:	e8bd8010 	pop	{r4, pc}

00107df0 <system__bb__timing_events__set_handler>:
  107df0:	e92d47f0 	push	{r4, r5, r6, r7, r8, r9, sl, lr}
  107df4:	e1a04000 	mov	r4, r0
  107df8:	e1a06002 	mov	r6, r2
  107dfc:	e1a07003 	mov	r7, r3
  107e00:	e59d9020 	ldr	r9, [sp, #32]
  107e04:	ebfffd64 	bl	10739c <system__bb__board_support__multiprocessors__mpidr>
  107e08:	e5948010 	ldr	r8, [r4, #16]
  107e0c:	e2000003 	and	r0, r0, #3
  107e10:	e2805001 	add	r5, r0, #1
  107e14:	e3580000 	cmp	r8, #0
  107e18:	0a00002f 	beq	107edc <system__bb__timing_events__set_handler+0xec>
  107e1c:	e1a00004 	mov	r0, r4
  107e20:	ebffffda 	bl	107d90 <system__bb__timing_events__extract>
  107e24:	e3590000 	cmp	r9, #0
  107e28:	e1a08000 	mov	r8, r0
  107e2c:	e5849010 	str	r9, [r4, #16]
  107e30:	0a000012 	beq	107e80 <system__bb__timing_events__set_handler+0x90>
  107e34:	e1c460f8 	strd	r6, [r4, #8]
  107e38:	e5c4501c 	strb	r5, [r4, #28]
  107e3c:	ebfffd56 	bl	10739c <system__bb__board_support__multiprocessors__mpidr>
  107e40:	e3031544 	movw	r1, #13636	; 0x3544
  107e44:	e2000003 	and	r0, r0, #3
  107e48:	e2800101 	add	r0, r0, #1073741824	; 0x40000000
  107e4c:	e3401011 	movt	r1, #17
  107e50:	e791c100 	ldr	ip, [r1, r0, lsl #2]
  107e54:	e35c0000 	cmp	ip, #0
  107e58:	0a000023 	beq	107eec <system__bb__timing_events__set_handler+0xfc>
  107e5c:	e1c460d8 	ldrd	r6, [r4, #8]
  107e60:	e1cc20d8 	ldrd	r2, [ip, #8]
  107e64:	e1530007 	cmp	r3, r7
  107e68:	01520006 	cmpeq	r2, r6
  107e6c:	9a00000f 	bls	107eb0 <system__bb__timing_events__set_handler+0xc0>
  107e70:	e584c014 	str	ip, [r4, #20]
  107e74:	e58c4018 	str	r4, [ip, #24]
  107e78:	e3a09001 	mov	r9, #1
  107e7c:	e7814100 	str	r4, [r1, r0, lsl #2]
  107e80:	e1898008 	orr	r8, r9, r8
  107e84:	e31800ff 	tst	r8, #255	; 0xff
  107e88:	08bd87f0 	popeq	{r4, r5, r6, r7, r8, r9, sl, pc}
  107e8c:	e1a00005 	mov	r0, r5
  107e90:	eb0000f0 	bl	108258 <system__bb__time__get_next_timeout>
  107e94:	e8bd47f0 	pop	{r4, r5, r6, r7, r8, r9, sl, lr}
  107e98:	ea000106 	b	1082b8 <system__bb__time__update_alarm>
  107e9c:	e1c120d8 	ldrd	r2, [r1, #8]
  107ea0:	e1570003 	cmp	r7, r3
  107ea4:	01560002 	cmpeq	r6, r2
  107ea8:	3a000003 	bcc	107ebc <system__bb__timing_events__set_handler+0xcc>
  107eac:	e1a0c001 	mov	ip, r1
  107eb0:	e59c1014 	ldr	r1, [ip, #20]
  107eb4:	e3510000 	cmp	r1, #0
  107eb8:	1afffff7 	bne	107e9c <system__bb__timing_events__set_handler+0xac>
  107ebc:	e5841014 	str	r1, [r4, #20]
  107ec0:	e3a09000 	mov	r9, #0
  107ec4:	e59c3014 	ldr	r3, [ip, #20]
  107ec8:	e584c018 	str	ip, [r4, #24]
  107ecc:	e3530000 	cmp	r3, #0
  107ed0:	15834018 	strne	r4, [r3, #24]
  107ed4:	e58c4014 	str	r4, [ip, #20]
  107ed8:	eaffffe8 	b	107e80 <system__bb__timing_events__set_handler+0x90>
  107edc:	e3590000 	cmp	r9, #0
  107ee0:	e5849010 	str	r9, [r4, #16]
  107ee4:	1affffd2 	bne	107e34 <system__bb__timing_events__set_handler+0x44>
  107ee8:	e8bd87f0 	pop	{r4, r5, r6, r7, r8, r9, sl, pc}
  107eec:	e584c014 	str	ip, [r4, #20]
  107ef0:	eaffffe0 	b	107e78 <system__bb__timing_events__set_handler+0x88>

00107ef4 <system__bb__timing_events__cancel_handler>:
  107ef4:	e92d4070 	push	{r4, r5, r6, lr}
  107ef8:	e1a05000 	mov	r5, r0
  107efc:	ebfffd26 	bl	10739c <system__bb__board_support__multiprocessors__mpidr>
  107f00:	e1a06000 	mov	r6, r0
  107f04:	e5950010 	ldr	r0, [r5, #16]
  107f08:	e3500000 	cmp	r0, #0
  107f0c:	01a04000 	moveq	r4, r0
  107f10:	0a000006 	beq	107f30 <system__bb__timing_events__cancel_handler+0x3c>
  107f14:	e1a00005 	mov	r0, r5
  107f18:	ebffff9c 	bl	107d90 <system__bb__timing_events__extract>
  107f1c:	e2504000 	subs	r4, r0, #0
  107f20:	e3a03000 	mov	r3, #0
  107f24:	e5853010 	str	r3, [r5, #16]
  107f28:	03a04001 	moveq	r4, #1
  107f2c:	1a000001 	bne	107f38 <system__bb__timing_events__cancel_handler+0x44>
  107f30:	e1a00004 	mov	r0, r4
  107f34:	e8bd8070 	pop	{r4, r5, r6, pc}
  107f38:	e2060003 	and	r0, r6, #3
  107f3c:	e2800001 	add	r0, r0, #1
  107f40:	eb0000c4 	bl	108258 <system__bb__time__get_next_timeout>
  107f44:	eb0000db 	bl	1082b8 <system__bb__time__update_alarm>
  107f48:	e1a00004 	mov	r0, r4
  107f4c:	e8bd8070 	pop	{r4, r5, r6, pc}

00107f50 <system__bb__timing_events__timing_eventIP>:
  107f50:	e3510000 	cmp	r1, #0
  107f54:	e92d0030 	push	{r4, r5}
  107f58:	159f3024 	ldrne	r3, [pc, #36]	; 107f84 <system__bb__timing_events__timing_eventIP+0x34>
  107f5c:	e3a04000 	mov	r4, #0
  107f60:	e3a05000 	mov	r5, #0
  107f64:	e1c040f8 	strd	r4, [r0, #8]
  107f68:	15803000 	strne	r3, [r0]
  107f6c:	e3a03000 	mov	r3, #0
  107f70:	e5803010 	str	r3, [r0, #16]
  107f74:	e5803014 	str	r3, [r0, #20]
  107f78:	e5803018 	str	r3, [r0, #24]
  107f7c:	e8bd0030 	pop	{r4, r5}
  107f80:	e12fff1e 	bx	lr
  107f84:	001117f8 			; <UNDEFINED> instruction: 0x001117f8

00107f88 <system__bb__timing_events__Ttiming_eventCFD>:
  107f88:	e5903000 	ldr	r3, [r0]
  107f8c:	e3a01001 	mov	r1, #1
  107f90:	e513300c 	ldr	r3, [r3, #-12]
  107f94:	e5933020 	ldr	r3, [r3, #32]
  107f98:	e12fff13 	bx	r3

00107f9c <system__bb__timing_events__finalize_spec>:
  107f9c:	e59f0000 	ldr	r0, [pc]	; 107fa4 <system__bb__timing_events__finalize_spec+0x8>
  107fa0:	eafffa15 	b	1067fc <ada__tags__unregister_tag>
  107fa4:	001117f8 			; <UNDEFINED> instruction: 0x001117f8

00107fa8 <system__bb__timing_events__execute_expired_timing_events>:
  107fa8:	e92d4ff0 	push	{r4, r5, r6, r7, r8, r9, sl, fp, lr}
  107fac:	e24dd00c 	sub	sp, sp, #12
  107fb0:	e1a06000 	mov	r6, r0
  107fb4:	e1a07001 	mov	r7, r1
  107fb8:	e3034544 	movw	r4, #13636	; 0x3544
  107fbc:	ebfffcf6 	bl	10739c <system__bb__board_support__multiprocessors__mpidr>
  107fc0:	e2000003 	and	r0, r0, #3
  107fc4:	e3404011 	movt	r4, #17
  107fc8:	e2805101 	add	r5, r0, #1073741824	; 0x40000000
  107fcc:	e794b105 	ldr	fp, [r4, r5, lsl #2]
  107fd0:	e35b0000 	cmp	fp, #0
  107fd4:	0a00001d 	beq	108050 <system__bb__timing_events__execute_expired_timing_events+0xa8>
  107fd8:	ebfffcef 	bl	10739c <system__bb__board_support__multiprocessors__mpidr>
  107fdc:	e3033524 	movw	r3, #13604	; 0x3524
  107fe0:	e2000003 	and	r0, r0, #3
  107fe4:	e2800101 	add	r0, r0, #1073741824	; 0x40000000
  107fe8:	e3403011 	movt	r3, #17
  107fec:	e7939100 	ldr	r9, [r3, r0, lsl #2]
  107ff0:	e3a010ff 	mov	r1, #255	; 0xff
  107ff4:	e3a08000 	mov	r8, #0
  107ff8:	e59930b4 	ldr	r3, [r9, #180]	; 0xb4
  107ffc:	e1a00009 	mov	r0, r9
  108000:	e58d3004 	str	r3, [sp, #4]
  108004:	ebfffe0a 	bl	107834 <system__bb__threads__queues__change_priority>
  108008:	e1cb20d8 	ldrd	r2, [fp, #8]
  10800c:	e1a0000b 	mov	r0, fp
  108010:	e1530007 	cmp	r3, r7
  108014:	01520006 	cmpeq	r2, r6
  108018:	8a000007 	bhi	10803c <system__bb__timing_events__execute_expired_timing_events+0x94>
  10801c:	e59ba010 	ldr	sl, [fp, #16]
  108020:	ebffff5a 	bl	107d90 <system__bb__timing_events__extract>
  108024:	e58b8010 	str	r8, [fp, #16]
  108028:	e1a0000b 	mov	r0, fp
  10802c:	e12fff3a 	blx	sl
  108030:	e794b105 	ldr	fp, [r4, r5, lsl #2]
  108034:	e35b0000 	cmp	fp, #0
  108038:	1afffff2 	bne	108008 <system__bb__timing_events__execute_expired_timing_events+0x60>
  10803c:	e59d1004 	ldr	r1, [sp, #4]
  108040:	e1a00009 	mov	r0, r9
  108044:	e28dd00c 	add	sp, sp, #12
  108048:	e8bd4ff0 	pop	{r4, r5, r6, r7, r8, r9, sl, fp, lr}
  10804c:	eafffdf8 	b	107834 <system__bb__threads__queues__change_priority>
  108050:	e28dd00c 	add	sp, sp, #12
  108054:	e8bd8ff0 	pop	{r4, r5, r6, r7, r8, r9, sl, fp, pc}

00108058 <system__bb__timing_events__get_next_timeout>:
  108058:	e3033544 	movw	r3, #13636	; 0x3544
  10805c:	e2400107 	sub	r0, r0, #-1073741823	; 0xc0000001
  108060:	e3403011 	movt	r3, #17
  108064:	e7933100 	ldr	r3, [r3, r0, lsl #2]
  108068:	e3530000 	cmp	r3, #0
  10806c:	0a000001 	beq	108078 <system__bb__timing_events__get_next_timeout+0x20>
  108070:	e1c300d8 	ldrd	r0, [r3, #8]
  108074:	e12fff1e 	bx	lr
  108078:	e3e00000 	mvn	r0, #0
  10807c:	e3e01000 	mvn	r1, #0
  108080:	e12fff1e 	bx	lr

00108084 <system__bb__timing_events___elabs>:
  108084:	e59f0000 	ldr	r0, [pc]	; 10808c <system__bb__timing_events___elabs+0x8>
  108088:	eafff9a1 	b	106714 <ada__tags__register_tag>
  10808c:	001117f8 			; <UNDEFINED> instruction: 0x001117f8

00108090 <system__bb__time__alarm_handler>:
  108090:	e92d40d0 	push	{r4, r6, r7, lr}
  108094:	ebfffc59 	bl	107200 <system__bb__board_support__time__read_clock>
  108098:	e1a07001 	mov	r7, r1
  10809c:	e1a06000 	mov	r6, r0
  1080a0:	ebfffcbd 	bl	10739c <system__bb__board_support__multiprocessors__mpidr>
  1080a4:	e3a02000 	mov	r2, #0
  1080a8:	e3033550 	movw	r3, #13648	; 0x3550
  1080ac:	e3a01001 	mov	r1, #1
  1080b0:	e34f28f0 	movt	r2, #63728	; 0xf8f0
  1080b4:	e3403011 	movt	r3, #17
  1080b8:	e5821208 	str	r1, [r2, #520]	; 0x208
  1080bc:	e582120c 	str	r1, [r2, #524]	; 0x20c
  1080c0:	e2000003 	and	r0, r0, #3
  1080c4:	e5933000 	ldr	r3, [r3]
  1080c8:	e0804001 	add	r4, r0, r1
  1080cc:	e3530000 	cmp	r3, #0
  1080d0:	0a000000 	beq	1080d8 <system__bb__time__alarm_handler+0x48>
  1080d4:	e12fff33 	blx	r3
  1080d8:	e1a00006 	mov	r0, r6
  1080dc:	e1a01007 	mov	r1, r7
  1080e0:	ebffffb0 	bl	107fa8 <system__bb__timing_events__execute_expired_timing_events>
  1080e4:	e1a00006 	mov	r0, r6
  1080e8:	e1a01007 	mov	r1, r7
  1080ec:	ebfffeb1 	bl	107bb8 <system__bb__threads__queues__wakeup_expired_alarms>
  1080f0:	e3032534 	movw	r2, #13620	; 0x3534
  1080f4:	e2443107 	sub	r3, r4, #-1073741823	; 0xc0000001
  1080f8:	e3402011 	movt	r2, #17
  1080fc:	e7922103 	ldr	r2, [r2, r3, lsl #2]
  108100:	e3520000 	cmp	r2, #0
  108104:	0a00000c 	beq	10813c <system__bb__time__alarm_handler+0xac>
  108108:	e1c20cd8 	ldrd	r0, [r2, #200]	; 0xc8
  10810c:	e3032544 	movw	r2, #13636	; 0x3544
  108110:	e3402011 	movt	r2, #17
  108114:	e7923103 	ldr	r3, [r2, r3, lsl #2]
  108118:	e3530000 	cmp	r3, #0
  10811c:	0a000004 	beq	108134 <system__bb__time__alarm_handler+0xa4>
  108120:	e1c320d8 	ldrd	r2, [r3, #8]
  108124:	e1510003 	cmp	r1, r3
  108128:	01500002 	cmpeq	r0, r2
  10812c:	81a00002 	movhi	r0, r2
  108130:	81a01003 	movhi	r1, r3
  108134:	e8bd40d0 	pop	{r4, r6, r7, lr}
  108138:	eafffc1c 	b	1071b0 <system__bb__board_support__time__set_alarm>
  10813c:	e3e00000 	mvn	r0, #0
  108140:	e3e01000 	mvn	r1, #0
  108144:	eafffff0 	b	10810c <system__bb__time__alarm_handler+0x7c>

00108148 <system__bb__time__composite_execution_timeIP>:
  108148:	e12fff1e 	bx	lr

0010814c <system__bb__time__clock>:
  10814c:	eafffc2b 	b	107200 <system__bb__board_support__time__read_clock>

00108150 <system__bb__time__epoch>:
  108150:	e3a00000 	mov	r0, #0
  108154:	e3a01000 	mov	r1, #0
  108158:	e12fff1e 	bx	lr

0010815c <system__bb__time__delay_until>:
  10815c:	e92d47f0 	push	{r4, r5, r6, r7, r8, r9, sl, lr}
  108160:	e1a04000 	mov	r4, r0
  108164:	e1a05001 	mov	r5, r1
  108168:	ebfffc8b 	bl	10739c <system__bb__board_support__multiprocessors__mpidr>
  10816c:	e1a06000 	mov	r6, r0
  108170:	f10c0080 	cpsid	i
  108174:	ebfffc21 	bl	107200 <system__bb__board_support__time__read_clock>
  108178:	e1a09001 	mov	r9, r1
  10817c:	e1a08000 	mov	r8, r0
  108180:	ebfffc85 	bl	10739c <system__bb__board_support__multiprocessors__mpidr>
  108184:	e1550009 	cmp	r5, r9
  108188:	e2000003 	and	r0, r0, #3
  10818c:	e3033524 	movw	r3, #13604	; 0x3524
  108190:	01540008 	cmpeq	r4, r8
  108194:	e2800101 	add	r0, r0, #1073741824	; 0x40000000
  108198:	e3403011 	movt	r3, #17
  10819c:	e7932100 	ldr	r2, [r3, r0, lsl #2]
  1081a0:	9a000025 	bls	10823c <system__bb__time__delay_until+0xe0>
  1081a4:	e1d23adc 	ldrsb	r3, [r2, #172]	; 0xac
  1081a8:	e1a00004 	mov	r0, r4
  1081ac:	e592e0c0 	ldr	lr, [r2, #192]	; 0xc0
  1081b0:	e3a04000 	mov	r4, #0
  1081b4:	e303c52c 	movw	ip, #13612	; 0x352c
  1081b8:	e3a07002 	mov	r7, #2
  1081bc:	e3530000 	cmp	r3, #0
  1081c0:	e340c011 	movt	ip, #17
  1081c4:	03a03001 	moveq	r3, #1
  1081c8:	e1a01005 	mov	r1, r5
  1081cc:	e2433107 	sub	r3, r3, #-1073741823	; 0xc0000001
  1081d0:	e5c270d4 	strb	r7, [r2, #212]	; 0xd4
  1081d4:	e58240c0 	str	r4, [r2, #192]	; 0xc0
  1081d8:	e78ce103 	str	lr, [ip, r3, lsl #2]
  1081dc:	ebfffe4a 	bl	107b0c <system__bb__threads__queues__insert_alarm>
  1081e0:	e1500004 	cmp	r0, r4
  1081e4:	0a000012 	beq	108234 <system__bb__time__delay_until+0xd8>
  1081e8:	e2066003 	and	r6, r6, #3
  1081ec:	e3033534 	movw	r3, #13620	; 0x3534
  1081f0:	e2866101 	add	r6, r6, #1073741824	; 0x40000000
  1081f4:	e3403011 	movt	r3, #17
  1081f8:	e7933106 	ldr	r3, [r3, r6, lsl #2]
  1081fc:	e1530004 	cmp	r3, r4
  108200:	0a000011 	beq	10824c <system__bb__time__delay_until+0xf0>
  108204:	e1c30cd8 	ldrd	r0, [r3, #200]	; 0xc8
  108208:	e3033544 	movw	r3, #13636	; 0x3544
  10820c:	e3403011 	movt	r3, #17
  108210:	e7933106 	ldr	r3, [r3, r6, lsl #2]
  108214:	e3530000 	cmp	r3, #0
  108218:	0a000004 	beq	108230 <system__bb__time__delay_until+0xd4>
  10821c:	e1c320d8 	ldrd	r2, [r3, #8]
  108220:	e1510003 	cmp	r1, r3
  108224:	01500002 	cmpeq	r0, r2
  108228:	81a00002 	movhi	r0, r2
  10822c:	81a01003 	movhi	r1, r3
  108230:	ebfffbde 	bl	1071b0 <system__bb__board_support__time__set_alarm>
  108234:	e8bd47f0 	pop	{r4, r5, r6, r7, r8, r9, sl, lr}
  108238:	ea00153c 	b	10d730 <system__bb__protection__leave_kernel>
  10823c:	e1a00002 	mov	r0, r2
  108240:	ebfffeac 	bl	107cf8 <system__bb__threads__queues__yield>
  108244:	e8bd47f0 	pop	{r4, r5, r6, r7, r8, r9, sl, lr}
  108248:	ea001538 	b	10d730 <system__bb__protection__leave_kernel>
  10824c:	e3e00000 	mvn	r0, #0
  108250:	e3e01000 	mvn	r1, #0
  108254:	eaffffeb 	b	108208 <system__bb__time__delay_until+0xac>

00108258 <system__bb__time__get_next_timeout>:
  108258:	e3033534 	movw	r3, #13620	; 0x3534
  10825c:	e2402107 	sub	r2, r0, #-1073741823	; 0xc0000001
  108260:	e3403011 	movt	r3, #17
  108264:	e7933102 	ldr	r3, [r3, r2, lsl #2]
  108268:	e3530000 	cmp	r3, #0
  10826c:	0a00000b 	beq	1082a0 <system__bb__time__get_next_timeout+0x48>
  108270:	e1c30cd8 	ldrd	r0, [r3, #200]	; 0xc8
  108274:	e3033544 	movw	r3, #13636	; 0x3544
  108278:	e3403011 	movt	r3, #17
  10827c:	e7933102 	ldr	r3, [r3, r2, lsl #2]
  108280:	e3530000 	cmp	r3, #0
  108284:	012fff1e 	bxeq	lr
  108288:	e1c320d8 	ldrd	r2, [r3, #8]
  10828c:	e1510003 	cmp	r1, r3
  108290:	01500002 	cmpeq	r0, r2
  108294:	81a00002 	movhi	r0, r2
  108298:	81a01003 	movhi	r1, r3
  10829c:	e12fff1e 	bx	lr
  1082a0:	e3e00000 	mvn	r0, #0
  1082a4:	e3e01000 	mvn	r1, #0
  1082a8:	eafffff1 	b	108274 <system__bb__time__get_next_timeout+0x1c>

001082ac <system__bb__time__initialize_timers>:
  1082ac:	e3080090 	movw	r0, #32912	; 0x8090
  1082b0:	e3400010 	movt	r0, #16
  1082b4:	eafffbe2 	b	107244 <system__bb__board_support__time__install_alarm_handler>

001082b8 <system__bb__time__update_alarm>:
  1082b8:	eafffbbc 	b	1071b0 <system__bb__board_support__time__set_alarm>

001082bc <__gnat_start_slave_cpus>:
  1082bc:	e3a03000 	mov	r3, #0
  1082c0:	e34f38f0 	movt	r3, #63728	; 0xf8f0
  1082c4:	e5933004 	ldr	r3, [r3, #4]
  1082c8:	e3130003 	tst	r3, #3
  1082cc:	012fff1e 	bxeq	lr
  1082d0:	eafffc40 	b	1073d8 <system__bb__board_support__multiprocessors__start_all_cpus>

001082d4 <system__bb__cpu_primitives__multiprocessors__poke_handler>:
  1082d4:	e92d4070 	push	{r4, r5, r6, lr}
  1082d8:	f10c0080 	cpsid	i
  1082dc:	ebfffbc7 	bl	107200 <system__bb__board_support__time__read_clock>
  1082e0:	e1a04000 	mov	r4, r0
  1082e4:	e1a05001 	mov	r5, r1
  1082e8:	ebffff2e 	bl	107fa8 <system__bb__timing_events__execute_expired_timing_events>
  1082ec:	e1a00004 	mov	r0, r4
  1082f0:	e1a01005 	mov	r1, r5
  1082f4:	ebfffe2f 	bl	107bb8 <system__bb__threads__queues__wakeup_expired_alarms>
  1082f8:	e8bd4070 	pop	{r4, r5, r6, lr}
  1082fc:	ea00150b 	b	10d730 <system__bb__protection__leave_kernel>

00108300 <system__exception_table__register.part.1>:
  108300:	e590c008 	ldr	ip, [r0, #8]
  108304:	e3a02000 	mov	r2, #0
  108308:	e92d0030 	push	{r4, r5}
  10830c:	e24c3001 	sub	r3, ip, #1
  108310:	e24cc10a 	sub	ip, ip, #-2147483646	; 0x80000002
  108314:	ea000002 	b	108324 <system__exception_table__register.part.1+0x24>
  108318:	e153000c 	cmp	r3, ip
  10831c:	e0222001 	eor	r2, r2, r1
  108320:	0a000002 	beq	108330 <system__exception_table__register.part.1+0x30>
  108324:	e5f31001 	ldrb	r1, [r3, #1]!
  108328:	e3510000 	cmp	r1, #0
  10832c:	1afffff9 	bne	108318 <system__exception_table__register.part.1+0x18>
  108330:	e309414d 	movw	r4, #37197	; 0x914d
  108334:	e30117e4 	movw	r1, #6116	; 0x17e4
  108338:	e34b4acf 	movt	r4, #47823	; 0xbacf
  10833c:	e3401012 	movt	r1, #18
  108340:	e0854492 	umull	r4, r5, r2, r4
  108344:	e0423005 	sub	r3, r2, r5
  108348:	e08530a3 	add	r3, r5, r3, lsr #1
  10834c:	e8bd0030 	pop	{r4, r5}
  108350:	e1a032a3 	lsr	r3, r3, #5
  108354:	e083c183 	add	ip, r3, r3, lsl #3
  108358:	e083310c 	add	r3, r3, ip, lsl #2
  10835c:	e0423003 	sub	r3, r2, r3
  108360:	e2833001 	add	r3, r3, #1
  108364:	e6ef3073 	uxtb	r3, r3
  108368:	e2433107 	sub	r3, r3, #-1073741823	; 0xc0000001
  10836c:	e7912103 	ldr	r2, [r1, r3, lsl #2]
  108370:	e3520000 	cmp	r2, #0
  108374:	01a02000 	moveq	r2, r0
  108378:	e580200c 	str	r2, [r0, #12]
  10837c:	e7810103 	str	r0, [r1, r3, lsl #2]
  108380:	e12fff1e 	bx	lr

00108384 <system__exception_table__exception_data_arrayIP>:
  108384:	e591c000 	ldr	ip, [r1]
  108388:	e5911004 	ldr	r1, [r1, #4]
  10838c:	e15c0001 	cmp	ip, r1
  108390:	c12fff1e 	bxgt	lr
  108394:	e52de004 	push	{lr}		; (str lr, [sp, #-4]!)
  108398:	e24c3001 	sub	r3, ip, #1
  10839c:	e3a0e000 	mov	lr, #0
  1083a0:	e2833001 	add	r3, r3, #1
  1083a4:	e1510003 	cmp	r1, r3
  1083a8:	e043200c 	sub	r2, r3, ip
  1083ac:	e780e102 	str	lr, [r0, r2, lsl #2]
  1083b0:	1afffffa 	bne	1083a0 <system__exception_table__exception_data_arrayIP+0x1c>
  1083b4:	e49df004 	pop	{pc}		; (ldr pc, [sp], #4)

001083b8 <system__exception_table__ThtableBIP>:
  1083b8:	e5d12000 	ldrb	r2, [r1]
  1083bc:	e5d1c001 	ldrb	ip, [r1, #1]
  1083c0:	e152000c 	cmp	r2, ip
  1083c4:	812fff1e 	bxhi	lr
  1083c8:	e04c1002 	sub	r1, ip, r2
  1083cc:	e282c001 	add	ip, r2, #1
  1083d0:	e6ef1071 	uxtb	r1, r1
  1083d4:	e52de004 	push	{lr}		; (str lr, [sp, #-4]!)
  1083d8:	e1a03002 	mov	r3, r2
  1083dc:	e3a0e000 	mov	lr, #0
  1083e0:	e08cc001 	add	ip, ip, r1
  1083e4:	e0431002 	sub	r1, r3, r2
  1083e8:	e2833001 	add	r3, r3, #1
  1083ec:	e153000c 	cmp	r3, ip
  1083f0:	e780e101 	str	lr, [r0, r1, lsl #2]
  1083f4:	1afffffa 	bne	1083e4 <system__exception_table__ThtableBIP+0x2c>
  1083f8:	e49df004 	pop	{pc}		; (ldr pc, [sp], #4)

001083fc <system__exception_table__has_name>:
  1083fc:	e92d4030 	push	{r4, r5, lr}
  108400:	e592e000 	ldr	lr, [r2]
  108404:	e5924004 	ldr	r4, [r2, #4]
  108408:	e15e0004 	cmp	lr, r4
  10840c:	ca00000e 	bgt	10844c <system__exception_table__has_name+0x50>
  108410:	e5905008 	ldr	r5, [r0, #8]
  108414:	e24ee002 	sub	lr, lr, #2
  108418:	e3a03001 	mov	r3, #1
  10841c:	ea000001 	b	108428 <system__exception_table__has_name+0x2c>
  108420:	e154000c 	cmp	r4, ip
  108424:	0a000008 	beq	10844c <system__exception_table__has_name+0x50>
  108428:	e0830005 	add	r0, r3, r5
  10842c:	e4d12001 	ldrb	r2, [r1], #1
  108430:	e5500001 	ldrb	r0, [r0, #-1]
  108434:	e2833001 	add	r3, r3, #1
  108438:	e08ec003 	add	ip, lr, r3
  10843c:	e1500002 	cmp	r0, r2
  108440:	0afffff6 	beq	108420 <system__exception_table__has_name+0x24>
  108444:	e3a00000 	mov	r0, #0
  108448:	e8bd8030 	pop	{r4, r5, pc}
  10844c:	e3a00001 	mov	r0, #1
  108450:	e8bd8030 	pop	{r4, r5, pc}

00108454 <system__exception_table__lookup>:
  108454:	e92d43f0 	push	{r4, r5, r6, r7, r8, r9, lr}
  108458:	e8910060 	ldm	r1, {r5, r6}
  10845c:	e1550006 	cmp	r5, r6
  108460:	ca00002f 	bgt	108524 <system__exception_table__lookup+0xd0>
  108464:	e045c000 	sub	ip, r5, r0
  108468:	e1a07000 	mov	r7, r0
  10846c:	e1a02000 	mov	r2, r0
  108470:	e24cc001 	sub	ip, ip, #1
  108474:	e3a03000 	mov	r3, #0
  108478:	ea000002 	b	108488 <system__exception_table__lookup+0x34>
  10847c:	e1560000 	cmp	r6, r0
  108480:	e0233001 	eor	r3, r3, r1
  108484:	0a000003 	beq	108498 <system__exception_table__lookup+0x44>
  108488:	e4d21001 	ldrb	r1, [r2], #1
  10848c:	e3510000 	cmp	r1, #0
  108490:	e08c0002 	add	r0, ip, r2
  108494:	1afffff8 	bne	10847c <system__exception_table__lookup+0x28>
  108498:	e309814d 	movw	r8, #37197	; 0x914d
  10849c:	e30117e4 	movw	r1, #6116	; 0x17e4
  1084a0:	e34b8acf 	movt	r8, #47823	; 0xbacf
  1084a4:	e3401012 	movt	r1, #18
  1084a8:	e0898893 	umull	r8, r9, r3, r8
  1084ac:	e0432009 	sub	r2, r3, r9
  1084b0:	e08920a2 	add	r2, r9, r2, lsr #1
  1084b4:	e1a022a2 	lsr	r2, r2, #5
  1084b8:	e0820182 	add	r0, r2, r2, lsl #3
  1084bc:	e0822100 	add	r2, r2, r0, lsl #2
  1084c0:	e0433002 	sub	r3, r3, r2
  1084c4:	e2833001 	add	r3, r3, #1
  1084c8:	e6ef3073 	uxtb	r3, r3
  1084cc:	e2433107 	sub	r3, r3, #-1073741823	; 0xc0000001
  1084d0:	e7910103 	ldr	r0, [r1, r3, lsl #2]
  1084d4:	e3500000 	cmp	r0, #0
